ARM GAS  C:\Users\vellu\AppData\Local\Temp\ccZ6lVOn.s 			page 1


   1              		.syntax unified
   2              		.cpu cortex-m3
   3              		.fpu softvfp
   4              		.eabi_attribute 20, 1
   5              		.eabi_attribute 21, 1
   6              		.eabi_attribute 23, 3
   7              		.eabi_attribute 24, 1
   8              		.eabi_attribute 25, 1
   9              		.eabi_attribute 26, 1
  10              		.eabi_attribute 30, 1
  11              		.eabi_attribute 34, 1
  12              		.eabi_attribute 18, 4
  13              		.thumb
  14              		.file	"main.c"
  15              		.text
  16              	.Ltext0:
  17              		.cfi_sections	.debug_frame
  18              		.global	__aeabi_fmul
  19              		.section	.text.numCalculator,"ax",%progbits
  20              		.align	2
  21              		.global	numCalculator
  22              		.thumb
  23              		.thumb_func
  24              		.type	numCalculator, %function
  25              	numCalculator:
  26              	.LFB64:
  27              		.file 1 "main.c"
   1:main.c        **** /* ========================================
   2:main.c        ****  *
   3:main.c        ****  * Copyright YOUR COMPANY, THE YEAR
   4:main.c        ****  * All Rights Reserved
   5:main.c        ****  * UNPUBLISHED, LICENSED SOFTWARE.
   6:main.c        ****  *
   7:main.c        ****  * CONFIDENTIAL AND PROPRIETARY INFORMATION
   8:main.c        ****  * WHICH IS THE PROPERTY OF your company.
   9:main.c        ****  *
  10:main.c        ****  * ========================================
  11:main.c        **** */
  12:main.c        **** #include "project.h"
  13:main.c        **** #include "stdio.h"
  14:main.c        **** #include <stdlib.h>
  15:main.c        **** #include <time.h>
  16:main.c        **** 
  17:main.c        **** 
  18:main.c        **** void numCalculator (float num1, float num2[5], int num3);
  19:main.c        **** 
  20:main.c        **** int main(void)
  21:main.c        **** {
  22:main.c        ****     CyGlobalIntEnable; /* Enable global interrupts. */
  23:main.c        **** 
  24:main.c        ****     /* Place your initialization/startup code here (e.g. MyInst_Start()) */
  25:main.c        ****     UART_1_Start();
  26:main.c        ****     
  27:main.c        ****        float number1 = 0;
  28:main.c        ****     float number2 = 0;
  29:main.c        ****     float num1 = 0;
  30:main.c        ****     float num2[5] = {};
ARM GAS  C:\Users\vellu\AppData\Local\Temp\ccZ6lVOn.s 			page 2


  31:main.c        ****     int num3 = 5;
  32:main.c        ****     float amount [5]={};
  33:main.c        ****     int j;
  34:main.c        ****     
  35:main.c        ****     do
  36:main.c        ****     {    
  37:main.c        ****     printf("\nEnter Exchange rate: ");
  38:main.c        ****     scanf("%f",&number1);
  39:main.c        ****     printf("\nEnter 1. amount: ");
  40:main.c        ****     scanf("%f",&amount[0]);
  41:main.c        ****     printf("\nEnter 2. amount: ");
  42:main.c        ****     scanf("%f",&amount[1]);
  43:main.c        ****     printf("\nEnter 3. amount: ");
  44:main.c        ****     scanf("%f",&amount[2]);
  45:main.c        ****     printf("\nEnter 4. amount: ");
  46:main.c        ****     scanf("%f",&amount[3]);
  47:main.c        ****     printf("\nEnter 5. amount: ");
  48:main.c        ****     scanf("%f",&amount[4]);
  49:main.c        ****     
  50:main.c        ****     if (number1 >= 0 && amount[0] >= 0 && amount[1] >= 0 && amount[2] >= 0 && amount[3] >= 0 && amo
  51:main.c        ****     {
  52:main.c        ****         num1 = number1;
  53:main.c        ****         num2[0] = amount[0];
  54:main.c        ****         num2[1] = amount[1];
  55:main.c        ****         num2[2] = amount[2];
  56:main.c        ****         num2[3] = amount[3];
  57:main.c        ****         num2[4] = amount[4];
  58:main.c        ****        
  59:main.c        ****     }
  60:main.c        ****     else
  61:main.c        ****     {
  62:main.c        ****         printf("\n\aNumber must be positive!");
  63:main.c        ****     }
  64:main.c        ****     }while(number1 <0 && amount[0] <0 && amount[1] <0 && amount[2] <0 && amount[3] <0 && amount[4] 
  65:main.c        ****     numCalculator(num1, num2, num3);
  66:main.c        ****     for (j = 0; j<5; j++)
  67:main.c        ****     {
  68:main.c        ****     printf ("Converted values are:[%d]=%f\n",j,num2[j]);
  69:main.c        ****     }
  70:main.c        ****     return 0;
  71:main.c        **** }
  72:main.c        **** void numCalculator (float num1, float num2[5], int num3)
  73:main.c        **** {
  28              		.loc 1 73 0
  29              		.cfi_startproc
  30              		@ args = 0, pretend = 0, frame = 0
  31              		@ frame_needed = 0, uses_anonymous_args = 0
  32              	.LVL0:
  33 0000 F8B5     		push	{r3, r4, r5, r6, r7, lr}
  34              		.cfi_def_cfa_offset 24
  35              		.cfi_offset 3, -24
  36              		.cfi_offset 4, -20
  37              		.cfi_offset 5, -16
  38              		.cfi_offset 6, -12
  39              		.cfi_offset 7, -8
  40              		.cfi_offset 14, -4
  41 0002 0746     		mov	r7, r0
ARM GAS  C:\Users\vellu\AppData\Local\Temp\ccZ6lVOn.s 			page 3


  42 0004 0D46     		mov	r5, r1
  43 0006 1646     		mov	r6, r2
  44              	.LVL1:
  74:main.c        ****     int i;
  75:main.c        ****     for (i = 0; i < num3; i++)
  45              		.loc 1 75 0
  46 0008 0024     		movs	r4, #0
  47 000a 07E0     		b	.L2
  48              	.LVL2:
  49              	.L3:
  76:main.c        ****     {
  77:main.c        ****         num2[i] *= num1;
  50              		.loc 1 77 0 discriminator 3
  51 000c 55F82400 		ldr	r0, [r5, r4, lsl #2]	@ float
  52 0010 3946     		mov	r1, r7
  53 0012 FFF7FEFF 		bl	__aeabi_fmul
  54              	.LVL3:
  55 0016 45F82400 		str	r0, [r5, r4, lsl #2]	@ float
  75:main.c        ****     {
  56              		.loc 1 75 0 discriminator 3
  57 001a 0134     		adds	r4, r4, #1
  58              	.LVL4:
  59              	.L2:
  75:main.c        ****     {
  60              		.loc 1 75 0 is_stmt 0 discriminator 1
  61 001c B442     		cmp	r4, r6
  62 001e F5DB     		blt	.L3
  78:main.c        ****     }
  79:main.c        **** }
  63              		.loc 1 79 0 is_stmt 1
  64 0020 F8BD     		pop	{r3, r4, r5, r6, r7, pc}
  65              		.cfi_endproc
  66              	.LFE64:
  67              		.size	numCalculator, .-numCalculator
  68              		.global	__aeabi_fcmpge
  69              		.global	__aeabi_fcmplt
  70              		.global	__aeabi_f2d
  71 0022 00BF     		.section	.text.main,"ax",%progbits
  72              		.align	2
  73              		.global	main
  74              		.thumb
  75              		.thumb_func
  76              		.type	main, %function
  77              	main:
  78              	.LFB63:
  21:main.c        ****     CyGlobalIntEnable; /* Enable global interrupts. */
  79              		.loc 1 21 0
  80              		.cfi_startproc
  81              		@ args = 0, pretend = 0, frame = 48
  82              		@ frame_needed = 0, uses_anonymous_args = 0
  83 0000 2DE9F047 		push	{r4, r5, r6, r7, r8, r9, r10, lr}
  84              		.cfi_def_cfa_offset 32
  85              		.cfi_offset 4, -32
  86              		.cfi_offset 5, -28
  87              		.cfi_offset 6, -24
  88              		.cfi_offset 7, -20
  89              		.cfi_offset 8, -16
ARM GAS  C:\Users\vellu\AppData\Local\Temp\ccZ6lVOn.s 			page 4


  90              		.cfi_offset 9, -12
  91              		.cfi_offset 10, -8
  92              		.cfi_offset 14, -4
  93 0004 8CB0     		sub	sp, sp, #48
  94              		.cfi_def_cfa_offset 80
  22:main.c        **** 
  95              		.loc 1 22 0
  96              	@ 22 "main.c" 1
  97 0006 62B6     		CPSIE   i
  98              	@ 0 "" 2
  25:main.c        ****     
  99              		.loc 1 25 0
 100              		.thumb
 101 0008 FFF7FEFF 		bl	UART_1_Start
 102              	.LVL5:
  27:main.c        ****     float number2 = 0;
 103              		.loc 1 27 0
 104 000c 4FF00009 		mov	r9, #0
 105 0010 CDF82C90 		str	r9, [sp, #44]	@ float
 106              	.LVL6:
  30:main.c        ****     int num3 = 5;
 107              		.loc 1 30 0
 108 0014 0023     		movs	r3, #0
 109 0016 0693     		str	r3, [sp, #24]
 110 0018 0793     		str	r3, [sp, #28]
 111 001a 0893     		str	r3, [sp, #32]
 112 001c 0993     		str	r3, [sp, #36]
 113 001e 0A93     		str	r3, [sp, #40]
 114              	.LVL7:
  32:main.c        ****     int j;
 115              		.loc 1 32 0
 116 0020 0193     		str	r3, [sp, #4]
 117 0022 0293     		str	r3, [sp, #8]
 118 0024 0393     		str	r3, [sp, #12]
 119 0026 0493     		str	r3, [sp, #16]
 120 0028 0593     		str	r3, [sp, #20]
 121              	.LVL8:
 122              	.L20:
  37:main.c        ****     scanf("%f",&number1);
 123              		.loc 1 37 0
 124 002a 4B48     		ldr	r0, .L35
 125 002c FFF7FEFF 		bl	printf
 126              	.LVL9:
  38:main.c        ****     printf("\nEnter 1. amount: ");
 127              		.loc 1 38 0
 128 0030 4A4C     		ldr	r4, .L35+4
 129 0032 2046     		mov	r0, r4
 130 0034 0BA9     		add	r1, sp, #44
 131 0036 FFF7FEFF 		bl	scanf
 132              	.LVL10:
  39:main.c        ****     scanf("%f",&amount[0]);
 133              		.loc 1 39 0
 134 003a 4948     		ldr	r0, .L35+8
 135 003c FFF7FEFF 		bl	printf
 136              	.LVL11:
  40:main.c        ****     printf("\nEnter 2. amount: ");
 137              		.loc 1 40 0
ARM GAS  C:\Users\vellu\AppData\Local\Temp\ccZ6lVOn.s 			page 5


 138 0040 2046     		mov	r0, r4
 139 0042 01A9     		add	r1, sp, #4
 140 0044 FFF7FEFF 		bl	scanf
 141              	.LVL12:
  41:main.c        ****     scanf("%f",&amount[1]);
 142              		.loc 1 41 0
 143 0048 4648     		ldr	r0, .L35+12
 144 004a FFF7FEFF 		bl	printf
 145              	.LVL13:
  42:main.c        ****     printf("\nEnter 3. amount: ");
 146              		.loc 1 42 0
 147 004e 2046     		mov	r0, r4
 148 0050 02A9     		add	r1, sp, #8
 149 0052 FFF7FEFF 		bl	scanf
 150              	.LVL14:
  43:main.c        ****     scanf("%f",&amount[2]);
 151              		.loc 1 43 0
 152 0056 4448     		ldr	r0, .L35+16
 153 0058 FFF7FEFF 		bl	printf
 154              	.LVL15:
  44:main.c        ****     printf("\nEnter 4. amount: ");
 155              		.loc 1 44 0
 156 005c 2046     		mov	r0, r4
 157 005e 03A9     		add	r1, sp, #12
 158 0060 FFF7FEFF 		bl	scanf
 159              	.LVL16:
  45:main.c        ****     scanf("%f",&amount[3]);
 160              		.loc 1 45 0
 161 0064 4148     		ldr	r0, .L35+20
 162 0066 FFF7FEFF 		bl	printf
 163              	.LVL17:
  46:main.c        ****     printf("\nEnter 5. amount: ");
 164              		.loc 1 46 0
 165 006a 2046     		mov	r0, r4
 166 006c 04A9     		add	r1, sp, #16
 167 006e FFF7FEFF 		bl	scanf
 168              	.LVL18:
  47:main.c        ****     scanf("%f",&amount[4]);
 169              		.loc 1 47 0
 170 0072 3F48     		ldr	r0, .L35+24
 171 0074 FFF7FEFF 		bl	printf
 172              	.LVL19:
  48:main.c        ****     
 173              		.loc 1 48 0
 174 0078 2046     		mov	r0, r4
 175 007a 05A9     		add	r1, sp, #20
 176 007c FFF7FEFF 		bl	scanf
 177              	.LVL20:
  50:main.c        ****     {
 178              		.loc 1 50 0
 179 0080 0B9C     		ldr	r4, [sp, #44]	@ float
 180 0082 2046     		mov	r0, r4
 181 0084 0021     		movs	r1, #0
 182 0086 FFF7FEFF 		bl	__aeabi_fcmpge
 183              	.LVL21:
 184 008a 40B3     		cbz	r0, .L6
  50:main.c        ****     {
ARM GAS  C:\Users\vellu\AppData\Local\Temp\ccZ6lVOn.s 			page 6


 185              		.loc 1 50 0 is_stmt 0 discriminator 1
 186 008c 019D     		ldr	r5, [sp, #4]	@ float
 187 008e 2846     		mov	r0, r5
 188 0090 0021     		movs	r1, #0
 189 0092 FFF7FEFF 		bl	__aeabi_fcmpge
 190              	.LVL22:
 191 0096 10B3     		cbz	r0, .L6
  50:main.c        ****     {
 192              		.loc 1 50 0 discriminator 2
 193 0098 029E     		ldr	r6, [sp, #8]	@ float
 194 009a 3046     		mov	r0, r6
 195 009c 0021     		movs	r1, #0
 196 009e FFF7FEFF 		bl	__aeabi_fcmpge
 197              	.LVL23:
 198 00a2 E0B1     		cbz	r0, .L6
  50:main.c        ****     {
 199              		.loc 1 50 0 discriminator 3
 200 00a4 039F     		ldr	r7, [sp, #12]	@ float
 201 00a6 3846     		mov	r0, r7
 202 00a8 0021     		movs	r1, #0
 203 00aa FFF7FEFF 		bl	__aeabi_fcmpge
 204              	.LVL24:
 205 00ae B0B1     		cbz	r0, .L6
  50:main.c        ****     {
 206              		.loc 1 50 0 discriminator 4
 207 00b0 DDF81080 		ldr	r8, [sp, #16]	@ float
 208 00b4 4046     		mov	r0, r8
 209 00b6 0021     		movs	r1, #0
 210 00b8 FFF7FEFF 		bl	__aeabi_fcmpge
 211              	.LVL25:
 212 00bc 78B1     		cbz	r0, .L6
  50:main.c        ****     {
 213              		.loc 1 50 0 discriminator 5
 214 00be DDF814A0 		ldr	r10, [sp, #20]	@ float
 215 00c2 5046     		mov	r0, r10
 216 00c4 0021     		movs	r1, #0
 217 00c6 FFF7FEFF 		bl	__aeabi_fcmpge
 218              	.LVL26:
 219 00ca 40B1     		cbz	r0, .L6
 220              	.LVL27:
  53:main.c        ****         num2[1] = amount[1];
 221              		.loc 1 53 0 is_stmt 1
 222 00cc 0695     		str	r5, [sp, #24]	@ float
  54:main.c        ****         num2[2] = amount[2];
 223              		.loc 1 54 0
 224 00ce 0796     		str	r6, [sp, #28]	@ float
  55:main.c        ****         num2[3] = amount[3];
 225              		.loc 1 55 0
 226 00d0 0897     		str	r7, [sp, #32]	@ float
  56:main.c        ****         num2[4] = amount[4];
 227              		.loc 1 56 0
 228 00d2 CDF82480 		str	r8, [sp, #36]	@ float
  57:main.c        ****        
 229              		.loc 1 57 0
 230 00d6 CDF828A0 		str	r10, [sp, #40]	@ float
  52:main.c        ****         num2[0] = amount[0];
 231              		.loc 1 52 0
ARM GAS  C:\Users\vellu\AppData\Local\Temp\ccZ6lVOn.s 			page 7


 232 00da A146     		mov	r9, r4
  57:main.c        ****        
 233              		.loc 1 57 0
 234 00dc 02E0     		b	.L13
 235              	.LVL28:
 236              	.L6:
  62:main.c        ****     }
 237              		.loc 1 62 0
 238 00de 2548     		ldr	r0, .L35+28
 239 00e0 FFF7FEFF 		bl	printf
 240              	.LVL29:
 241              	.L13:
  64:main.c        ****     numCalculator(num1, num2, num3);
 242              		.loc 1 64 0
 243 00e4 0B98     		ldr	r0, [sp, #44]	@ float
 244 00e6 0021     		movs	r1, #0
 245 00e8 FFF7FEFF 		bl	__aeabi_fcmplt
 246              	.LVL30:
 247 00ec C8B1     		cbz	r0, .L14
  64:main.c        ****     numCalculator(num1, num2, num3);
 248              		.loc 1 64 0 is_stmt 0 discriminator 1
 249 00ee 0198     		ldr	r0, [sp, #4]	@ float
 250 00f0 0021     		movs	r1, #0
 251 00f2 FFF7FEFF 		bl	__aeabi_fcmplt
 252              	.LVL31:
 253 00f6 A0B1     		cbz	r0, .L14
  64:main.c        ****     numCalculator(num1, num2, num3);
 254              		.loc 1 64 0 discriminator 2
 255 00f8 0298     		ldr	r0, [sp, #8]	@ float
 256 00fa 0021     		movs	r1, #0
 257 00fc FFF7FEFF 		bl	__aeabi_fcmplt
 258              	.LVL32:
 259 0100 78B1     		cbz	r0, .L14
  64:main.c        ****     numCalculator(num1, num2, num3);
 260              		.loc 1 64 0 discriminator 3
 261 0102 0398     		ldr	r0, [sp, #12]	@ float
 262 0104 0021     		movs	r1, #0
 263 0106 FFF7FEFF 		bl	__aeabi_fcmplt
 264              	.LVL33:
 265 010a 50B1     		cbz	r0, .L14
  64:main.c        ****     numCalculator(num1, num2, num3);
 266              		.loc 1 64 0 discriminator 4
 267 010c 0498     		ldr	r0, [sp, #16]	@ float
 268 010e 0021     		movs	r1, #0
 269 0110 FFF7FEFF 		bl	__aeabi_fcmplt
 270              	.LVL34:
 271 0114 28B1     		cbz	r0, .L14
  64:main.c        ****     numCalculator(num1, num2, num3);
 272              		.loc 1 64 0 discriminator 5
 273 0116 0598     		ldr	r0, [sp, #20]	@ float
 274 0118 0021     		movs	r1, #0
 275 011a FFF7FEFF 		bl	__aeabi_fcmplt
 276              	.LVL35:
 277 011e 0028     		cmp	r0, #0
 278 0120 83D1     		bne	.L20
 279              	.L14:
  65:main.c        ****     for (j = 0; j<5; j++)
ARM GAS  C:\Users\vellu\AppData\Local\Temp\ccZ6lVOn.s 			page 8


 280              		.loc 1 65 0 is_stmt 1
 281 0122 4846     		mov	r0, r9
 282 0124 06A9     		add	r1, sp, #24
 283 0126 0522     		movs	r2, #5
 284 0128 FFF7FEFF 		bl	numCalculator
 285              	.LVL36:
  66:main.c        ****     {
 286              		.loc 1 66 0
 287 012c 0024     		movs	r4, #0
 288 012e 0DE0     		b	.L21
 289              	.LVL37:
 290              	.L22:
  68:main.c        ****     }
 291              		.loc 1 68 0 discriminator 3
 292 0130 0CAB     		add	r3, sp, #48
 293 0132 03EB8403 		add	r3, r3, r4, lsl #2
 294 0136 53F8180C 		ldr	r0, [r3, #-24]	@ float
 295 013a FFF7FEFF 		bl	__aeabi_f2d
 296              	.LVL38:
 297 013e 0246     		mov	r2, r0
 298 0140 0B46     		mov	r3, r1
 299 0142 0D48     		ldr	r0, .L35+32
 300 0144 2146     		mov	r1, r4
 301 0146 FFF7FEFF 		bl	printf
 302              	.LVL39:
  66:main.c        ****     {
 303              		.loc 1 66 0 discriminator 3
 304 014a 0134     		adds	r4, r4, #1
 305              	.LVL40:
 306              	.L21:
  66:main.c        ****     {
 307              		.loc 1 66 0 is_stmt 0 discriminator 1
 308 014c 042C     		cmp	r4, #4
 309 014e EFDD     		ble	.L22
  71:main.c        **** void numCalculator (float num1, float num2[5], int num3)
 310              		.loc 1 71 0 is_stmt 1
 311 0150 0020     		movs	r0, #0
 312 0152 0CB0     		add	sp, sp, #48
 313              		.cfi_def_cfa_offset 32
 314              		@ sp needed
 315 0154 BDE8F087 		pop	{r4, r5, r6, r7, r8, r9, r10, pc}
 316              	.LVL41:
 317              	.L36:
 318              		.align	2
 319              	.L35:
 320 0158 00000000 		.word	.LC0
 321 015c 18000000 		.word	.LC1
 322 0160 1C000000 		.word	.LC2
 323 0164 30000000 		.word	.LC3
 324 0168 44000000 		.word	.LC4
 325 016c 58000000 		.word	.LC5
 326 0170 6C000000 		.word	.LC6
 327 0174 80000000 		.word	.LC7
 328 0178 9C000000 		.word	.LC8
 329              		.cfi_endproc
 330              	.LFE63:
 331              		.size	main, .-main
ARM GAS  C:\Users\vellu\AppData\Local\Temp\ccZ6lVOn.s 			page 9


 332              		.section	.text._write,"ax",%progbits
 333              		.align	2
 334              		.global	_write
 335              		.thumb
 336              		.thumb_func
 337              		.type	_write, %function
 338              	_write:
 339              	.LFB65:
  80:main.c        **** 
  81:main.c        **** int _write(int file, char *ptr, int len)
  82:main.c        **** {
 340              		.loc 1 82 0
 341              		.cfi_startproc
 342              		@ args = 0, pretend = 0, frame = 0
 343              		@ frame_needed = 0, uses_anonymous_args = 0
 344              	.LVL42:
 345 0000 F8B5     		push	{r3, r4, r5, r6, r7, lr}
 346              		.cfi_def_cfa_offset 24
 347              		.cfi_offset 3, -24
 348              		.cfi_offset 4, -20
 349              		.cfi_offset 5, -16
 350              		.cfi_offset 6, -12
 351              		.cfi_offset 7, -8
 352              		.cfi_offset 14, -4
 353 0002 0C46     		mov	r4, r1
 354 0004 1746     		mov	r7, r2
 355              	.LVL43:
  83:main.c        ****     (void)file; /* Parameter is not used, suppress unused argument warning */
  84:main.c        **** 	int n;
  85:main.c        **** 	for(n = 0; n < len; n++) {
 356              		.loc 1 85 0
 357 0006 0025     		movs	r5, #0
 358 0008 0BE0     		b	.L38
 359              	.LVL44:
 360              	.L40:
  86:main.c        ****         if(*ptr == '\n') UART_1_PutChar('\r');
 361              		.loc 1 86 0
 362 000a 2378     		ldrb	r3, [r4]	@ zero_extendqisi2
 363 000c 0A2B     		cmp	r3, #10
 364 000e 02D1     		bne	.L39
 365              		.loc 1 86 0 is_stmt 0 discriminator 1
 366 0010 0D20     		movs	r0, #13
 367 0012 FFF7FEFF 		bl	UART_1_PutChar
 368              	.LVL45:
 369              	.L39:
  87:main.c        **** 		UART_1_PutChar(*ptr++);
 370              		.loc 1 87 0 is_stmt 1 discriminator 2
 371 0016 661C     		adds	r6, r4, #1
 372              	.LVL46:
 373 0018 2078     		ldrb	r0, [r4]	@ zero_extendqisi2
 374 001a FFF7FEFF 		bl	UART_1_PutChar
 375              	.LVL47:
  85:main.c        ****         if(*ptr == '\n') UART_1_PutChar('\r');
 376              		.loc 1 85 0 discriminator 2
 377 001e 0135     		adds	r5, r5, #1
 378              	.LVL48:
 379              		.loc 1 87 0 discriminator 2
ARM GAS  C:\Users\vellu\AppData\Local\Temp\ccZ6lVOn.s 			page 10


 380 0020 3446     		mov	r4, r6
 381              	.LVL49:
 382              	.L38:
  85:main.c        ****         if(*ptr == '\n') UART_1_PutChar('\r');
 383              		.loc 1 85 0 discriminator 1
 384 0022 BD42     		cmp	r5, r7
 385 0024 F1DB     		blt	.L40
  88:main.c        **** 	}
  89:main.c        **** 	return len;
  90:main.c        **** }
 386              		.loc 1 90 0
 387 0026 3846     		mov	r0, r7
 388 0028 F8BD     		pop	{r3, r4, r5, r6, r7, pc}
 389              		.cfi_endproc
 390              	.LFE65:
 391              		.size	_write, .-_write
 392 002a 00BF     		.section	.text._read,"ax",%progbits
 393              		.align	2
 394              		.global	_read
 395              		.thumb
 396              		.thumb_func
 397              		.type	_read, %function
 398              	_read:
 399              	.LFB66:
  91:main.c        **** 
  92:main.c        **** int _read (int file, char *ptr, int count)
  93:main.c        **** {
 400              		.loc 1 93 0
 401              		.cfi_startproc
 402              		@ args = 0, pretend = 0, frame = 0
 403              		@ frame_needed = 0, uses_anonymous_args = 0
 404              	.LVL50:
 405 0000 F8B5     		push	{r3, r4, r5, r6, r7, lr}
 406              		.cfi_def_cfa_offset 24
 407              		.cfi_offset 3, -24
 408              		.cfi_offset 4, -20
 409              		.cfi_offset 5, -16
 410              		.cfi_offset 6, -12
 411              		.cfi_offset 7, -8
 412              		.cfi_offset 14, -4
 413 0002 0F46     		mov	r7, r1
 414 0004 1446     		mov	r4, r2
 415              	.LVL51:
  94:main.c        ****     int chs = 0;
 416              		.loc 1 94 0
 417 0006 0026     		movs	r6, #0
  95:main.c        ****     char ch;
  96:main.c        ****  
  97:main.c        ****     (void)file; /* Parameter is not used, suppress unused argument warning */
  98:main.c        ****     while(count > 0) {
 418              		.loc 1 98 0
 419 0008 12E0     		b	.L44
 420              	.LVL52:
 421              	.L47:
  99:main.c        ****         ch = UART_1_GetChar();
 422              		.loc 1 99 0
 423 000a FFF7FEFF 		bl	UART_1_GetChar
ARM GAS  C:\Users\vellu\AppData\Local\Temp\ccZ6lVOn.s 			page 11


 424              	.LVL53:
 100:main.c        ****         if(ch != 0) {
 425              		.loc 1 100 0
 426 000e 0546     		mov	r5, r0
 427 0010 70B1     		cbz	r0, .L44
 101:main.c        ****             UART_1_PutChar(ch);
 428              		.loc 1 101 0
 429 0012 FFF7FEFF 		bl	UART_1_PutChar
 430              	.LVL54:
 102:main.c        ****             chs++;
 431              		.loc 1 102 0
 432 0016 0136     		adds	r6, r6, #1
 433              	.LVL55:
 103:main.c        ****             if(ch == '\r') {
 434              		.loc 1 103 0
 435 0018 0D2D     		cmp	r5, #13
 436 001a 03D1     		bne	.L45
 437              	.LVL56:
 104:main.c        ****                 ch = '\n';
 105:main.c        ****                 UART_1_PutChar(ch);
 438              		.loc 1 105 0
 439 001c 0A20     		movs	r0, #10
 440 001e FFF7FEFF 		bl	UART_1_PutChar
 441              	.LVL57:
 104:main.c        ****                 ch = '\n';
 442              		.loc 1 104 0
 443 0022 0A25     		movs	r5, #10
 444              	.LVL58:
 445              	.L45:
 106:main.c        ****             }
 107:main.c        ****             *ptr++ = ch;
 446              		.loc 1 107 0
 447 0024 7B1C     		adds	r3, r7, #1
 448              	.LVL59:
 449 0026 3D70     		strb	r5, [r7]
 108:main.c        ****             count--;
 450              		.loc 1 108 0
 451 0028 013C     		subs	r4, r4, #1
 452              	.LVL60:
 109:main.c        ****             if(ch == '\n') break;
 453              		.loc 1 109 0
 454 002a 0A2D     		cmp	r5, #10
 455 002c 02D0     		beq	.L46
 107:main.c        ****             count--;
 456              		.loc 1 107 0
 457 002e 1F46     		mov	r7, r3
 458              	.LVL61:
 459              	.L44:
  98:main.c        ****         ch = UART_1_GetChar();
 460              		.loc 1 98 0
 461 0030 002C     		cmp	r4, #0
 462 0032 EADC     		bgt	.L47
 463              	.LVL62:
 464              	.L46:
 110:main.c        ****         }
 111:main.c        ****     }
 112:main.c        ****     return chs;
ARM GAS  C:\Users\vellu\AppData\Local\Temp\ccZ6lVOn.s 			page 12


 113:main.c        **** }
 465              		.loc 1 113 0
 466 0034 3046     		mov	r0, r6
 467 0036 F8BD     		pop	{r3, r4, r5, r6, r7, pc}
 468              		.cfi_endproc
 469              	.LFE66:
 470              		.size	_read, .-_read
 471              		.section	.rodata.str1.4,"aMS",%progbits,1
 472              		.align	2
 473              	.LC0:
 474 0000 0A456E74 		.ascii	"\012Enter Exchange rate: \000"
 474      65722045 
 474      78636861 
 474      6E676520 
 474      72617465 
 475 0017 00       		.space	1
 476              	.LC1:
 477 0018 256600   		.ascii	"%f\000"
 478 001b 00       		.space	1
 479              	.LC2:
 480 001c 0A456E74 		.ascii	"\012Enter 1. amount: \000"
 480      65722031 
 480      2E20616D 
 480      6F756E74 
 480      3A2000
 481 002f 00       		.space	1
 482              	.LC3:
 483 0030 0A456E74 		.ascii	"\012Enter 2. amount: \000"
 483      65722032 
 483      2E20616D 
 483      6F756E74 
 483      3A2000
 484 0043 00       		.space	1
 485              	.LC4:
 486 0044 0A456E74 		.ascii	"\012Enter 3. amount: \000"
 486      65722033 
 486      2E20616D 
 486      6F756E74 
 486      3A2000
 487 0057 00       		.space	1
 488              	.LC5:
 489 0058 0A456E74 		.ascii	"\012Enter 4. amount: \000"
 489      65722034 
 489      2E20616D 
 489      6F756E74 
 489      3A2000
 490 006b 00       		.space	1
 491              	.LC6:
 492 006c 0A456E74 		.ascii	"\012Enter 5. amount: \000"
 492      65722035 
 492      2E20616D 
 492      6F756E74 
 492      3A2000
 493 007f 00       		.space	1
 494              	.LC7:
 495 0080 0A074E75 		.ascii	"\012\007Number must be positive!\000"
 495      6D626572 
ARM GAS  C:\Users\vellu\AppData\Local\Temp\ccZ6lVOn.s 			page 13


 495      206D7573 
 495      74206265 
 495      20706F73 
 496 009b 00       		.space	1
 497              	.LC8:
 498 009c 436F6E76 		.ascii	"Converted values are:[%d]=%f\012\000"
 498      65727465 
 498      64207661 
 498      6C756573 
 498      20617265 
 499 00ba 0000     		.text
 500              	.Letext0:
 501              		.file 2 "c:\\program files (x86)\\cypress\\psoc creator\\4.0\\psoc creator\\import\\gnu\\arm\\4.9.
 502              		.file 3 "c:\\program files (x86)\\cypress\\psoc creator\\4.0\\psoc creator\\import\\gnu\\arm\\4.9.
 503              		.file 4 "Generated_Source\\PSoC5/cytypes.h"
 504              		.file 5 "c:\\program files (x86)\\cypress\\psoc creator\\4.0\\psoc creator\\import\\gnu\\arm\\4.9.
 505              		.file 6 "Generated_Source\\PSoC5/core_cm3.h"
 506              		.file 7 "Generated_Source\\PSoC5/UART_1.h"