ARM GAS  C:\Users\vellu\AppData\Local\Temp\cczZ3ouj.s 			page 1


   1              		.syntax unified
   2              		.cpu cortex-m3
   3              		.fpu softvfp
   4              		.eabi_attribute 20, 1
   5              		.eabi_attribute 21, 1
   6              		.eabi_attribute 23, 3
   7              		.eabi_attribute 24, 1
   8              		.eabi_attribute 25, 1
   9              		.eabi_attribute 26, 1
  10              		.eabi_attribute 30, 1
  11              		.eabi_attribute 34, 1
  12              		.eabi_attribute 18, 4
  13              		.thumb
  14              		.file	"main.c"
  15              		.text
  16              	.Ltext0:
  17              		.cfi_sections	.debug_frame
  18              		.section	.text.SelectionMenu,"ax",%progbits
  19              		.align	2
  20              		.global	SelectionMenu
  21              		.thumb
  22              		.thumb_func
  23              		.type	SelectionMenu, %function
  24              	SelectionMenu:
  25              	.LFB64:
  26              		.file 1 "main.c"
   1:main.c        **** /* ========================================
   2:main.c        ****  *
   3:main.c        ****  * Copyright YOUR COMPANY, THE YEAR
   4:main.c        ****  * All Rights Reserved
   5:main.c        ****  * UNPUBLISHED, LICENSED SOFTWARE.
   6:main.c        ****  *
   7:main.c        ****  * CONFIDENTIAL AND PROPRIETARY INFORMATION
   8:main.c        ****  * WHICH IS THE PROPERTY OF your company.
   9:main.c        ****  *
  10:main.c        ****  * ========================================
  11:main.c        **** */
  12:main.c        **** #include "project.h"
  13:main.c        **** #include "stdio.h"
  14:main.c        **** 
  15:main.c        **** int main(void)
  16:main.c        **** {
  17:main.c        ****     CyGlobalIntEnable; /* Enable global interrupts. */
  18:main.c        **** 
  19:main.c        ****     /* Place your initialization/startup code here (e.g. MyInst_Start()) */
  20:main.c        ****     UART_1_Start();
  21:main.c        ****     
  22:main.c        ****     int selection;
  23:main.c        ****     int result;
  24:main.c        ****     int op1;
  25:main.c        ****     int op2;
  26:main.c        ****     
  27:main.c        ****     do
  28:main.c        ****     {
  29:main.c        ****         selection = SelectionMenu();
  30:main.c        ****         switch(selection)
  31:main.c        ****         {
ARM GAS  C:\Users\vellu\AppData\Local\Temp\cczZ3ouj.s 			page 2


  32:main.c        ****             case 1:
  33:main.c        ****             printf("\nEnter operand 1: ");
  34:main.c        ****             scanf("%d",&op1);
  35:main.c        ****             printf("\nEnter operand 2: ");
  36:main.c        ****             scanf("%d",&op2);
  37:main.c        ****               break;
  38:main.c        ****             case 2:
  39:main.c        ****             result=op1*op2;
  40:main.c        ****             printf("result = %d\n",result);
  41:main.c        ****               break;
  42:main.c        ****             case 3:
  43:main.c        ****             result=op1+op2;
  44:main.c        ****             printf("result = %d\n",result);
  45:main.c        ****               break;
  46:main.c        ****             case 4:
  47:main.c        ****             
  48:main.c        ****               break;
  49:main.c        ****         }
  50:main.c        ****         
  51:main.c        ****     }while(selection != 4);
  52:main.c        ****     
  53:main.c        ****     return 0;
  54:main.c        **** }
  55:main.c        ****     int SelectionMenu(void)
  56:main.c        ****     {
  27              		.loc 1 56 0
  28              		.cfi_startproc
  29              		@ args = 0, pretend = 0, frame = 8
  30              		@ frame_needed = 0, uses_anonymous_args = 0
  31 0000 00B5     		push	{lr}
  32              		.cfi_def_cfa_offset 4
  33              		.cfi_offset 14, -4
  34 0002 83B0     		sub	sp, sp, #12
  35              		.cfi_def_cfa_offset 16
  57:main.c        ****         int selection;
  58:main.c        ****         
  59:main.c        ****         printf("Select operation: \n");
  36              		.loc 1 59 0
  37 0004 0B48     		ldr	r0, .L3
  38 0006 FFF7FEFF 		bl	puts
  39              	.LVL0:
  60:main.c        ****         printf("1)enter operands\n");
  40              		.loc 1 60 0
  41 000a 0B48     		ldr	r0, .L3+4
  42 000c FFF7FEFF 		bl	puts
  43              	.LVL1:
  61:main.c        ****         printf("2)multiply operands\n");
  44              		.loc 1 61 0
  45 0010 0A48     		ldr	r0, .L3+8
  46 0012 FFF7FEFF 		bl	puts
  47              	.LVL2:
  62:main.c        ****         printf("3)add operants\n");
  48              		.loc 1 62 0
  49 0016 0A48     		ldr	r0, .L3+12
  50 0018 FFF7FEFF 		bl	puts
  51              	.LVL3:
  63:main.c        ****         printf("4)quit\n");
ARM GAS  C:\Users\vellu\AppData\Local\Temp\cczZ3ouj.s 			page 3


  52              		.loc 1 63 0
  53 001c 0948     		ldr	r0, .L3+16
  54 001e FFF7FEFF 		bl	puts
  55              	.LVL4:
  64:main.c        ****         scanf("%d",&selection);
  56              		.loc 1 64 0
  57 0022 0948     		ldr	r0, .L3+20
  58 0024 01A9     		add	r1, sp, #4
  59 0026 FFF7FEFF 		bl	scanf
  60              	.LVL5:
  65:main.c        ****         
  66:main.c        ****         return selection;
  67:main.c        ****     }
  61              		.loc 1 67 0
  62 002a 0198     		ldr	r0, [sp, #4]
  63 002c 03B0     		add	sp, sp, #12
  64              		.cfi_def_cfa_offset 4
  65              		@ sp needed
  66 002e 5DF804FB 		ldr	pc, [sp], #4
  67              	.L4:
  68 0032 00BF     		.align	2
  69              	.L3:
  70 0034 00000000 		.word	.LC0
  71 0038 14000000 		.word	.LC1
  72 003c 28000000 		.word	.LC2
  73 0040 3C000000 		.word	.LC3
  74 0044 4C000000 		.word	.LC4
  75 0048 54000000 		.word	.LC5
  76              		.cfi_endproc
  77              	.LFE64:
  78              		.size	SelectionMenu, .-SelectionMenu
  79              		.section	.text.main,"ax",%progbits
  80              		.align	2
  81              		.global	main
  82              		.thumb
  83              		.thumb_func
  84              		.type	main, %function
  85              	main:
  86              	.LFB63:
  16:main.c        ****     CyGlobalIntEnable; /* Enable global interrupts. */
  87              		.loc 1 16 0
  88              		.cfi_startproc
  89              		@ args = 0, pretend = 0, frame = 8
  90              		@ frame_needed = 0, uses_anonymous_args = 0
  91 0000 30B5     		push	{r4, r5, lr}
  92              		.cfi_def_cfa_offset 12
  93              		.cfi_offset 4, -12
  94              		.cfi_offset 5, -8
  95              		.cfi_offset 14, -4
  96 0002 83B0     		sub	sp, sp, #12
  97              		.cfi_def_cfa_offset 24
  17:main.c        **** 
  98              		.loc 1 17 0
  99              	@ 17 "main.c" 1
 100 0004 62B6     		CPSIE   i
 101              	@ 0 "" 2
  20:main.c        ****     
ARM GAS  C:\Users\vellu\AppData\Local\Temp\cczZ3ouj.s 			page 4


 102              		.loc 1 20 0
 103              		.thumb
 104 0006 FFF7FEFF 		bl	UART_1_Start
 105              	.LVL6:
 106              	.L10:
 107              	.LBB2:
  29:main.c        ****         switch(selection)
 108              		.loc 1 29 0
 109 000a FFF7FEFF 		bl	SelectionMenu
 110              	.LVL7:
 111 000e 0446     		mov	r4, r0
 112              	.LVL8:
  30:main.c        ****         {
 113              		.loc 1 30 0
 114 0010 0228     		cmp	r0, #2
 115 0012 13D0     		beq	.L7
 116 0014 0328     		cmp	r0, #3
 117 0016 19D0     		beq	.L8
 118 0018 0128     		cmp	r0, #1
 119 001a 1DD1     		bne	.L6
  33:main.c        ****             scanf("%d",&op1);
 120              		.loc 1 33 0
 121 001c 1148     		ldr	r0, .L12
 122              	.LVL9:
 123 001e FFF7FEFF 		bl	printf
 124              	.LVL10:
  34:main.c        ****             printf("\nEnter operand 2: ");
 125              		.loc 1 34 0
 126 0022 114D     		ldr	r5, .L12+4
 127 0024 2846     		mov	r0, r5
 128 0026 01A9     		add	r1, sp, #4
 129 0028 FFF7FEFF 		bl	scanf
 130              	.LVL11:
  35:main.c        ****             scanf("%d",&op2);
 131              		.loc 1 35 0
 132 002c 0F48     		ldr	r0, .L12+8
 133 002e FFF7FEFF 		bl	printf
 134              	.LVL12:
  36:main.c        ****               break;
 135              		.loc 1 36 0
 136 0032 2846     		mov	r0, r5
 137 0034 6946     		mov	r1, sp
 138 0036 FFF7FEFF 		bl	scanf
 139              	.LVL13:
  37:main.c        ****             case 2:
 140              		.loc 1 37 0
 141 003a 0DE0     		b	.L6
 142              	.LVL14:
 143              	.L7:
  40:main.c        ****               break;
 144              		.loc 1 40 0
 145 003c 0C48     		ldr	r0, .L12+12
 146              	.LVL15:
 147 003e 0099     		ldr	r1, [sp]
 148 0040 019B     		ldr	r3, [sp, #4]
 149 0042 01FB03F1 		mul	r1, r1, r3
 150              	.LVL16:
ARM GAS  C:\Users\vellu\AppData\Local\Temp\cczZ3ouj.s 			page 5


 151 0046 FFF7FEFF 		bl	printf
 152              	.LVL17:
  41:main.c        ****             case 3:
 153              		.loc 1 41 0
 154 004a 05E0     		b	.L6
 155              	.LVL18:
 156              	.L8:
  44:main.c        ****               break;
 157              		.loc 1 44 0
 158 004c 0848     		ldr	r0, .L12+12
 159              	.LVL19:
 160 004e 009B     		ldr	r3, [sp]
 161 0050 0199     		ldr	r1, [sp, #4]
 162 0052 1944     		add	r1, r1, r3
 163              	.LVL20:
 164 0054 FFF7FEFF 		bl	printf
 165              	.LVL21:
 166              	.L6:
 167              	.LBE2:
  51:main.c        ****     
 168              		.loc 1 51 0
 169 0058 042C     		cmp	r4, #4
 170 005a D6D1     		bne	.L10
  54:main.c        ****     int SelectionMenu(void)
 171              		.loc 1 54 0
 172 005c 0020     		movs	r0, #0
 173 005e 03B0     		add	sp, sp, #12
 174              		.cfi_def_cfa_offset 12
 175              		@ sp needed
 176 0060 30BD     		pop	{r4, r5, pc}
 177              	.LVL22:
 178              	.L13:
 179 0062 00BF     		.align	2
 180              	.L12:
 181 0064 58000000 		.word	.LC6
 182 0068 54000000 		.word	.LC5
 183 006c 6C000000 		.word	.LC7
 184 0070 80000000 		.word	.LC8
 185              		.cfi_endproc
 186              	.LFE63:
 187              		.size	main, .-main
 188              		.section	.text._write,"ax",%progbits
 189              		.align	2
 190              		.global	_write
 191              		.thumb
 192              		.thumb_func
 193              		.type	_write, %function
 194              	_write:
 195              	.LFB65:
  68:main.c        **** 
  69:main.c        **** int _write(int file, char *ptr, int len)
  70:main.c        **** {
 196              		.loc 1 70 0
 197              		.cfi_startproc
 198              		@ args = 0, pretend = 0, frame = 0
 199              		@ frame_needed = 0, uses_anonymous_args = 0
 200              	.LVL23:
ARM GAS  C:\Users\vellu\AppData\Local\Temp\cczZ3ouj.s 			page 6


 201 0000 F8B5     		push	{r3, r4, r5, r6, r7, lr}
 202              		.cfi_def_cfa_offset 24
 203              		.cfi_offset 3, -24
 204              		.cfi_offset 4, -20
 205              		.cfi_offset 5, -16
 206              		.cfi_offset 6, -12
 207              		.cfi_offset 7, -8
 208              		.cfi_offset 14, -4
 209 0002 0C46     		mov	r4, r1
 210 0004 1746     		mov	r7, r2
 211              	.LVL24:
  71:main.c        ****     (void)file; /* Parameter is not used, suppress unused argument warning */
  72:main.c        **** 	int n;
  73:main.c        **** 	for(n = 0; n < len; n++) {
 212              		.loc 1 73 0
 213 0006 0025     		movs	r5, #0
 214 0008 0BE0     		b	.L15
 215              	.LVL25:
 216              	.L17:
  74:main.c        ****         if(*ptr == '\n') UART_1_PutChar('\r');
 217              		.loc 1 74 0
 218 000a 2378     		ldrb	r3, [r4]	@ zero_extendqisi2
 219 000c 0A2B     		cmp	r3, #10
 220 000e 02D1     		bne	.L16
 221              		.loc 1 74 0 is_stmt 0 discriminator 1
 222 0010 0D20     		movs	r0, #13
 223 0012 FFF7FEFF 		bl	UART_1_PutChar
 224              	.LVL26:
 225              	.L16:
  75:main.c        **** 		UART_1_PutChar(*ptr++);
 226              		.loc 1 75 0 is_stmt 1 discriminator 2
 227 0016 661C     		adds	r6, r4, #1
 228              	.LVL27:
 229 0018 2078     		ldrb	r0, [r4]	@ zero_extendqisi2
 230 001a FFF7FEFF 		bl	UART_1_PutChar
 231              	.LVL28:
  73:main.c        ****         if(*ptr == '\n') UART_1_PutChar('\r');
 232              		.loc 1 73 0 discriminator 2
 233 001e 0135     		adds	r5, r5, #1
 234              	.LVL29:
 235              		.loc 1 75 0 discriminator 2
 236 0020 3446     		mov	r4, r6
 237              	.LVL30:
 238              	.L15:
  73:main.c        ****         if(*ptr == '\n') UART_1_PutChar('\r');
 239              		.loc 1 73 0 discriminator 1
 240 0022 BD42     		cmp	r5, r7
 241 0024 F1DB     		blt	.L17
  76:main.c        **** 	}
  77:main.c        **** 	return len;
  78:main.c        **** }
 242              		.loc 1 78 0
 243 0026 3846     		mov	r0, r7
 244 0028 F8BD     		pop	{r3, r4, r5, r6, r7, pc}
 245              		.cfi_endproc
 246              	.LFE65:
 247              		.size	_write, .-_write
ARM GAS  C:\Users\vellu\AppData\Local\Temp\cczZ3ouj.s 			page 7


 248 002a 00BF     		.section	.text._read,"ax",%progbits
 249              		.align	2
 250              		.global	_read
 251              		.thumb
 252              		.thumb_func
 253              		.type	_read, %function
 254              	_read:
 255              	.LFB66:
  79:main.c        **** 
  80:main.c        **** int _read (int file, char *ptr, int count)
  81:main.c        **** {
 256              		.loc 1 81 0
 257              		.cfi_startproc
 258              		@ args = 0, pretend = 0, frame = 0
 259              		@ frame_needed = 0, uses_anonymous_args = 0
 260              	.LVL31:
 261 0000 F8B5     		push	{r3, r4, r5, r6, r7, lr}
 262              		.cfi_def_cfa_offset 24
 263              		.cfi_offset 3, -24
 264              		.cfi_offset 4, -20
 265              		.cfi_offset 5, -16
 266              		.cfi_offset 6, -12
 267              		.cfi_offset 7, -8
 268              		.cfi_offset 14, -4
 269 0002 0F46     		mov	r7, r1
 270 0004 1446     		mov	r4, r2
 271              	.LVL32:
  82:main.c        ****     int chs = 0;
 272              		.loc 1 82 0
 273 0006 0026     		movs	r6, #0
  83:main.c        ****     char ch;
  84:main.c        ****  
  85:main.c        ****     (void)file; /* Parameter is not used, suppress unused argument warning */
  86:main.c        ****     while(count > 0) {
 274              		.loc 1 86 0
 275 0008 12E0     		b	.L21
 276              	.LVL33:
 277              	.L24:
  87:main.c        ****         ch = UART_1_GetChar();
 278              		.loc 1 87 0
 279 000a FFF7FEFF 		bl	UART_1_GetChar
 280              	.LVL34:
  88:main.c        ****         if(ch != 0) {
 281              		.loc 1 88 0
 282 000e 0546     		mov	r5, r0
 283 0010 70B1     		cbz	r0, .L21
  89:main.c        ****             UART_1_PutChar(ch);
 284              		.loc 1 89 0
 285 0012 FFF7FEFF 		bl	UART_1_PutChar
 286              	.LVL35:
  90:main.c        ****             chs++;
 287              		.loc 1 90 0
 288 0016 0136     		adds	r6, r6, #1
 289              	.LVL36:
  91:main.c        ****             if(ch == '\r') {
 290              		.loc 1 91 0
 291 0018 0D2D     		cmp	r5, #13
ARM GAS  C:\Users\vellu\AppData\Local\Temp\cczZ3ouj.s 			page 8


 292 001a 03D1     		bne	.L22
 293              	.LVL37:
  92:main.c        ****                 ch = '\n';
  93:main.c        ****                 UART_1_PutChar(ch);
 294              		.loc 1 93 0
 295 001c 0A20     		movs	r0, #10
 296 001e FFF7FEFF 		bl	UART_1_PutChar
 297              	.LVL38:
  92:main.c        ****                 ch = '\n';
 298              		.loc 1 92 0
 299 0022 0A25     		movs	r5, #10
 300              	.LVL39:
 301              	.L22:
  94:main.c        ****             }
  95:main.c        ****             *ptr++ = ch;
 302              		.loc 1 95 0
 303 0024 7B1C     		adds	r3, r7, #1
 304              	.LVL40:
 305 0026 3D70     		strb	r5, [r7]
  96:main.c        ****             count--;
 306              		.loc 1 96 0
 307 0028 013C     		subs	r4, r4, #1
 308              	.LVL41:
  97:main.c        ****             if(ch == '\n') break;
 309              		.loc 1 97 0
 310 002a 0A2D     		cmp	r5, #10
 311 002c 02D0     		beq	.L23
  95:main.c        ****             count--;
 312              		.loc 1 95 0
 313 002e 1F46     		mov	r7, r3
 314              	.LVL42:
 315              	.L21:
  86:main.c        ****         ch = UART_1_GetChar();
 316              		.loc 1 86 0
 317 0030 002C     		cmp	r4, #0
 318 0032 EADC     		bgt	.L24
 319              	.LVL43:
 320              	.L23:
  98:main.c        ****         }
  99:main.c        ****     }
 100:main.c        ****     return chs;
 101:main.c        **** }
 321              		.loc 1 101 0
 322 0034 3046     		mov	r0, r6
 323 0036 F8BD     		pop	{r3, r4, r5, r6, r7, pc}
 324              		.cfi_endproc
 325              	.LFE66:
 326              		.size	_read, .-_read
 327              		.section	.rodata.str1.4,"aMS",%progbits,1
 328              		.align	2
 329              	.LC0:
 330 0000 53656C65 		.ascii	"Select operation: \000"
 330      6374206F 
 330      70657261 
 330      74696F6E 
 330      3A2000
 331 0013 00       		.space	1
ARM GAS  C:\Users\vellu\AppData\Local\Temp\cczZ3ouj.s 			page 9


 332              	.LC1:
 333 0014 3129656E 		.ascii	"1)enter operands\000"
 333      74657220 
 333      6F706572 
 333      616E6473 
 333      00
 334 0025 000000   		.space	3
 335              	.LC2:
 336 0028 32296D75 		.ascii	"2)multiply operands\000"
 336      6C746970 
 336      6C79206F 
 336      70657261 
 336      6E647300 
 337              	.LC3:
 338 003c 33296164 		.ascii	"3)add operants\000"
 338      64206F70 
 338      6572616E 
 338      747300
 339 004b 00       		.space	1
 340              	.LC4:
 341 004c 34297175 		.ascii	"4)quit\000"
 341      697400
 342 0053 00       		.space	1
 343              	.LC5:
 344 0054 256400   		.ascii	"%d\000"
 345 0057 00       		.space	1
 346              	.LC6:
 347 0058 0A456E74 		.ascii	"\012Enter operand 1: \000"
 347      6572206F 
 347      70657261 
 347      6E642031 
 347      3A2000
 348 006b 00       		.space	1
 349              	.LC7:
 350 006c 0A456E74 		.ascii	"\012Enter operand 2: \000"
 350      6572206F 
 350      70657261 
 350      6E642032 
 350      3A2000
 351 007f 00       		.space	1
 352              	.LC8:
 353 0080 72657375 		.ascii	"result = %d\012\000"
 353      6C74203D 
 353      2025640A 
 353      00
 354 008d 000000   		.text
 355              	.Letext0:
 356              		.file 2 "c:\\program files (x86)\\cypress\\psoc creator\\4.0\\psoc creator\\import\\gnu\\arm\\4.9.
 357              		.file 3 "c:\\program files (x86)\\cypress\\psoc creator\\4.0\\psoc creator\\import\\gnu\\arm\\4.9.
 358              		.file 4 "Generated_Source\\PSoC5/cytypes.h"
 359              		.file 5 "c:\\program files (x86)\\cypress\\psoc creator\\4.0\\psoc creator\\import\\gnu\\arm\\4.9.
 360              		.file 6 "Generated_Source\\PSoC5/UART_1.h"
 361              		.file 7 "Generated_Source\\PSoC5/core_cm3.h"
 362              		.file 8 "<built-in>"