ARM GAS  C:\Users\vellu\AppData\Local\Temp\cc1WWvF9.s 			page 1


   1              		.syntax unified
   2              		.cpu cortex-m3
   3              		.fpu softvfp
   4              		.eabi_attribute 20, 1
   5              		.eabi_attribute 21, 1
   6              		.eabi_attribute 23, 3
   7              		.eabi_attribute 24, 1
   8              		.eabi_attribute 25, 1
   9              		.eabi_attribute 26, 1
  10              		.eabi_attribute 30, 1
  11              		.eabi_attribute 34, 1
  12              		.eabi_attribute 18, 4
  13              		.thumb
  14              		.file	"main.c"
  15              		.text
  16              	.Ltext0:
  17              		.cfi_sections	.debug_frame
  18              		.global	__aeabi_fcmplt
  19              		.global	__aeabi_f2d
  20              		.section	.text.main,"ax",%progbits
  21              		.align	2
  22              		.global	main
  23              		.thumb
  24              		.thumb_func
  25              		.type	main, %function
  26              	main:
  27              	.LFB63:
  28              		.file 1 "main.c"
   1:main.c        **** /* ========================================
   2:main.c        ****  *
   3:main.c        ****  * Copyright YOUR COMPANY, THE YEAR
   4:main.c        ****  * All Rights Reserved
   5:main.c        ****  * UNPUBLISHED, LICENSED SOFTWARE.
   6:main.c        ****  *
   7:main.c        ****  * CONFIDENTIAL AND PROPRIETARY INFORMATION
   8:main.c        ****  * WHICH IS THE PROPERTY OF your company.
   9:main.c        ****  *
  10:main.c        ****  * ========================================
  11:main.c        **** */
  12:main.c        **** #include "project.h"
  13:main.c        **** #include "stdio.h"
  14:main.c        **** #define Array_Size 5
  15:main.c        **** int main(void)
  16:main.c        **** {
  29              		.loc 1 16 0
  30              		.cfi_startproc
  31              		@ args = 0, pretend = 0, frame = 24
  32              		@ frame_needed = 0, uses_anonymous_args = 0
  33 0000 70B5     		push	{r4, r5, r6, lr}
  34              		.cfi_def_cfa_offset 16
  35              		.cfi_offset 4, -16
  36              		.cfi_offset 5, -12
  37              		.cfi_offset 6, -8
  38              		.cfi_offset 14, -4
  39 0002 86B0     		sub	sp, sp, #24
  40              		.cfi_def_cfa_offset 40
  17:main.c        ****     CyGlobalIntEnable; /* Enable global interrupts. */
ARM GAS  C:\Users\vellu\AppData\Local\Temp\cc1WWvF9.s 			page 2


  41              		.loc 1 17 0
  42              	@ 17 "main.c" 1
  43 0004 62B6     		CPSIE   i
  44              	@ 0 "" 2
  18:main.c        **** 
  19:main.c        ****     /* Place your initialization/startup code here (e.g. MyInst_Start()) */
  20:main.c        ****     UART_1_Start();
  45              		.loc 1 20 0
  46              		.thumb
  47 0006 FFF7FEFF 		bl	UART_1_Start
  48              	.LVL0:
  21:main.c        ****     
  22:main.c        ****     float num[Array_Size]={0};
  49              		.loc 1 22 0
  50 000a 0024     		movs	r4, #0
  51 000c 0194     		str	r4, [sp, #4]
  52 000e 0294     		str	r4, [sp, #8]
  53 0010 0394     		str	r4, [sp, #12]
  54 0012 0494     		str	r4, [sp, #16]
  55 0014 0594     		str	r4, [sp, #20]
  56              	.LVL1:
  23:main.c        ****     int i=0;
  24:main.c        ****     float smallest;
  25:main.c        ****     
  26:main.c        ****     printf("Enter five numbers: \n");
  57              		.loc 1 26 0
  58 0016 1648     		ldr	r0, .L9
  59 0018 FFF7FEFF 		bl	puts
  60              	.LVL2:
  27:main.c        ****     
  28:main.c        ****     for(i=0;i<Array_Size;i++)
  61              		.loc 1 28 0
  62 001c 0AE0     		b	.L2
  63              	.LVL3:
  64              	.L3:
  29:main.c        ****     { 
  30:main.c        ****         printf("\nEnter number [%d]: ",i);
  65              		.loc 1 30 0 discriminator 3
  66 001e 1548     		ldr	r0, .L9+4
  67 0020 2146     		mov	r1, r4
  68 0022 FFF7FEFF 		bl	printf
  69              	.LVL4:
  31:main.c        ****         scanf("%f",&num[i]);
  70              		.loc 1 31 0 discriminator 3
  71 0026 1448     		ldr	r0, .L9+8
  72 0028 01AB     		add	r3, sp, #4
  73 002a 03EB8401 		add	r1, r3, r4, lsl #2
  74 002e FFF7FEFF 		bl	scanf
  75              	.LVL5:
  28:main.c        ****     { 
  76              		.loc 1 28 0 discriminator 3
  77 0032 0134     		adds	r4, r4, #1
  78              	.LVL6:
  79              	.L2:
  28:main.c        ****     { 
  80              		.loc 1 28 0 is_stmt 0 discriminator 1
  81 0034 042C     		cmp	r4, #4
ARM GAS  C:\Users\vellu\AppData\Local\Temp\cc1WWvF9.s 			page 3


  82 0036 F2DD     		ble	.L3
  32:main.c        ****     }
  33:main.c        ****     smallest=num[0];
  83              		.loc 1 33 0 is_stmt 1
  84 0038 019E     		ldr	r6, [sp, #4]	@ float
  85              	.LVL7:
  34:main.c        ****     for(i=1;i<Array_Size;i++)
  86              		.loc 1 34 0
  87 003a 0124     		movs	r4, #1
  88 003c 0BE0     		b	.L4
  89              	.LVL8:
  90              	.L6:
  35:main.c        ****     {
  36:main.c        ****         if(num[i]<smallest)
  91              		.loc 1 36 0
  92 003e 06AB     		add	r3, sp, #24
  93 0040 03EB8403 		add	r3, r3, r4, lsl #2
  94 0044 53F8145C 		ldr	r5, [r3, #-20]	@ float
  95 0048 2846     		mov	r0, r5
  96 004a 3146     		mov	r1, r6
  97 004c FFF7FEFF 		bl	__aeabi_fcmplt
  98              	.LVL9:
  99 0050 00B1     		cbz	r0, .L5
  37:main.c        ****         {
  38:main.c        ****             smallest=num[i];
 100              		.loc 1 38 0
 101 0052 2E46     		mov	r6, r5
 102              	.LVL10:
 103              	.L5:
  34:main.c        ****     {
 104              		.loc 1 34 0 discriminator 2
 105 0054 0134     		adds	r4, r4, #1
 106              	.LVL11:
 107              	.L4:
  34:main.c        ****     {
 108              		.loc 1 34 0 is_stmt 0 discriminator 1
 109 0056 042C     		cmp	r4, #4
 110 0058 F1DD     		ble	.L6
  39:main.c        ****         }
  40:main.c        ****     }
  41:main.c        ****     printf("The smallest number that you entered was:%.2f\n",smallest);
 111              		.loc 1 41 0 is_stmt 1
 112 005a 3046     		mov	r0, r6
 113 005c FFF7FEFF 		bl	__aeabi_f2d
 114              	.LVL12:
 115 0060 0246     		mov	r2, r0
 116 0062 0B46     		mov	r3, r1
 117 0064 0548     		ldr	r0, .L9+12
 118 0066 FFF7FEFF 		bl	printf
 119              	.LVL13:
  42:main.c        ****     return 0;
  43:main.c        ****     
  44:main.c        **** }
 120              		.loc 1 44 0
 121 006a 0020     		movs	r0, #0
 122 006c 06B0     		add	sp, sp, #24
 123              		.cfi_def_cfa_offset 16
ARM GAS  C:\Users\vellu\AppData\Local\Temp\cc1WWvF9.s 			page 4


 124              		@ sp needed
 125 006e 70BD     		pop	{r4, r5, r6, pc}
 126              	.LVL14:
 127              	.L10:
 128              		.align	2
 129              	.L9:
 130 0070 00000000 		.word	.LC0
 131 0074 18000000 		.word	.LC1
 132 0078 30000000 		.word	.LC2
 133 007c 34000000 		.word	.LC3
 134              		.cfi_endproc
 135              	.LFE63:
 136              		.size	main, .-main
 137              		.section	.text._write,"ax",%progbits
 138              		.align	2
 139              		.global	_write
 140              		.thumb
 141              		.thumb_func
 142              		.type	_write, %function
 143              	_write:
 144              	.LFB64:
  45:main.c        **** int _write(int file, char *ptr, int len)
  46:main.c        **** {
 145              		.loc 1 46 0
 146              		.cfi_startproc
 147              		@ args = 0, pretend = 0, frame = 0
 148              		@ frame_needed = 0, uses_anonymous_args = 0
 149              	.LVL15:
 150 0000 F8B5     		push	{r3, r4, r5, r6, r7, lr}
 151              		.cfi_def_cfa_offset 24
 152              		.cfi_offset 3, -24
 153              		.cfi_offset 4, -20
 154              		.cfi_offset 5, -16
 155              		.cfi_offset 6, -12
 156              		.cfi_offset 7, -8
 157              		.cfi_offset 14, -4
 158 0002 0C46     		mov	r4, r1
 159 0004 1746     		mov	r7, r2
 160              	.LVL16:
  47:main.c        ****     (void)file; /* Parameter is not used, suppress unused argument warning */
  48:main.c        **** 	int n;
  49:main.c        **** 	for(n = 0; n < len; n++) {
 161              		.loc 1 49 0
 162 0006 0025     		movs	r5, #0
 163 0008 0BE0     		b	.L12
 164              	.LVL17:
 165              	.L14:
  50:main.c        ****         if(*ptr == '\n') UART_1_PutChar('\r');
 166              		.loc 1 50 0
 167 000a 2378     		ldrb	r3, [r4]	@ zero_extendqisi2
 168 000c 0A2B     		cmp	r3, #10
 169 000e 02D1     		bne	.L13
 170              		.loc 1 50 0 is_stmt 0 discriminator 1
 171 0010 0D20     		movs	r0, #13
 172 0012 FFF7FEFF 		bl	UART_1_PutChar
 173              	.LVL18:
 174              	.L13:
ARM GAS  C:\Users\vellu\AppData\Local\Temp\cc1WWvF9.s 			page 5


  51:main.c        **** 		UART_1_PutChar(*ptr++);
 175              		.loc 1 51 0 is_stmt 1 discriminator 2
 176 0016 661C     		adds	r6, r4, #1
 177              	.LVL19:
 178 0018 2078     		ldrb	r0, [r4]	@ zero_extendqisi2
 179 001a FFF7FEFF 		bl	UART_1_PutChar
 180              	.LVL20:
  49:main.c        ****         if(*ptr == '\n') UART_1_PutChar('\r');
 181              		.loc 1 49 0 discriminator 2
 182 001e 0135     		adds	r5, r5, #1
 183              	.LVL21:
 184              		.loc 1 51 0 discriminator 2
 185 0020 3446     		mov	r4, r6
 186              	.LVL22:
 187              	.L12:
  49:main.c        ****         if(*ptr == '\n') UART_1_PutChar('\r');
 188              		.loc 1 49 0 discriminator 1
 189 0022 BD42     		cmp	r5, r7
 190 0024 F1DB     		blt	.L14
  52:main.c        **** 	}
  53:main.c        **** 	return len;
  54:main.c        **** }
 191              		.loc 1 54 0
 192 0026 3846     		mov	r0, r7
 193 0028 F8BD     		pop	{r3, r4, r5, r6, r7, pc}
 194              		.cfi_endproc
 195              	.LFE64:
 196              		.size	_write, .-_write
 197 002a 00BF     		.section	.text._read,"ax",%progbits
 198              		.align	2
 199              		.global	_read
 200              		.thumb
 201              		.thumb_func
 202              		.type	_read, %function
 203              	_read:
 204              	.LFB65:
  55:main.c        **** 
  56:main.c        **** int _read (int file, char *ptr, int count)
  57:main.c        **** {
 205              		.loc 1 57 0
 206              		.cfi_startproc
 207              		@ args = 0, pretend = 0, frame = 0
 208              		@ frame_needed = 0, uses_anonymous_args = 0
 209              	.LVL23:
 210 0000 F8B5     		push	{r3, r4, r5, r6, r7, lr}
 211              		.cfi_def_cfa_offset 24
 212              		.cfi_offset 3, -24
 213              		.cfi_offset 4, -20
 214              		.cfi_offset 5, -16
 215              		.cfi_offset 6, -12
 216              		.cfi_offset 7, -8
 217              		.cfi_offset 14, -4
 218 0002 0F46     		mov	r7, r1
 219 0004 1446     		mov	r4, r2
 220              	.LVL24:
  58:main.c        ****     int chs = 0;
 221              		.loc 1 58 0
ARM GAS  C:\Users\vellu\AppData\Local\Temp\cc1WWvF9.s 			page 6


 222 0006 0026     		movs	r6, #0
  59:main.c        ****     char ch;
  60:main.c        ****  
  61:main.c        ****     (void)file; /* Parameter is not used, suppress unused argument warning */
  62:main.c        ****     while(count > 0) {
 223              		.loc 1 62 0
 224 0008 12E0     		b	.L18
 225              	.LVL25:
 226              	.L21:
  63:main.c        ****         ch = UART_1_GetChar();
 227              		.loc 1 63 0
 228 000a FFF7FEFF 		bl	UART_1_GetChar
 229              	.LVL26:
  64:main.c        ****         if(ch != 0) {
 230              		.loc 1 64 0
 231 000e 0546     		mov	r5, r0
 232 0010 70B1     		cbz	r0, .L18
  65:main.c        ****             UART_1_PutChar(ch);
 233              		.loc 1 65 0
 234 0012 FFF7FEFF 		bl	UART_1_PutChar
 235              	.LVL27:
  66:main.c        ****             chs++;
 236              		.loc 1 66 0
 237 0016 0136     		adds	r6, r6, #1
 238              	.LVL28:
  67:main.c        ****             if(ch == '\r') {
 239              		.loc 1 67 0
 240 0018 0D2D     		cmp	r5, #13
 241 001a 03D1     		bne	.L19
 242              	.LVL29:
  68:main.c        ****                 ch = '\n';
  69:main.c        ****                 UART_1_PutChar(ch);
 243              		.loc 1 69 0
 244 001c 0A20     		movs	r0, #10
 245 001e FFF7FEFF 		bl	UART_1_PutChar
 246              	.LVL30:
  68:main.c        ****                 ch = '\n';
 247              		.loc 1 68 0
 248 0022 0A25     		movs	r5, #10
 249              	.LVL31:
 250              	.L19:
  70:main.c        ****             }
  71:main.c        ****             *ptr++ = ch;
 251              		.loc 1 71 0
 252 0024 7B1C     		adds	r3, r7, #1
 253              	.LVL32:
 254 0026 3D70     		strb	r5, [r7]
  72:main.c        ****             count--;
 255              		.loc 1 72 0
 256 0028 013C     		subs	r4, r4, #1
 257              	.LVL33:
  73:main.c        ****             if(ch == '\n') break;
 258              		.loc 1 73 0
 259 002a 0A2D     		cmp	r5, #10
 260 002c 02D0     		beq	.L20
  71:main.c        ****             count--;
 261              		.loc 1 71 0
ARM GAS  C:\Users\vellu\AppData\Local\Temp\cc1WWvF9.s 			page 7


 262 002e 1F46     		mov	r7, r3
 263              	.LVL34:
 264              	.L18:
  62:main.c        ****         ch = UART_1_GetChar();
 265              		.loc 1 62 0
 266 0030 002C     		cmp	r4, #0
 267 0032 EADC     		bgt	.L21
 268              	.LVL35:
 269              	.L20:
  74:main.c        ****         }
  75:main.c        ****     }
  76:main.c        ****     return chs;
  77:main.c        **** }
 270              		.loc 1 77 0
 271 0034 3046     		mov	r0, r6
 272 0036 F8BD     		pop	{r3, r4, r5, r6, r7, pc}
 273              		.cfi_endproc
 274              	.LFE65:
 275              		.size	_read, .-_read
 276              		.section	.rodata.str1.4,"aMS",%progbits,1
 277              		.align	2
 278              	.LC0:
 279 0000 456E7465 		.ascii	"Enter five numbers: \000"
 279      72206669 
 279      7665206E 
 279      756D6265 
 279      72733A20 
 280 0015 000000   		.space	3
 281              	.LC1:
 282 0018 0A456E74 		.ascii	"\012Enter number [%d]: \000"
 282      6572206E 
 282      756D6265 
 282      72205B25 
 282      645D3A20 
 283 002d 000000   		.space	3
 284              	.LC2:
 285 0030 256600   		.ascii	"%f\000"
 286 0033 00       		.space	1
 287              	.LC3:
 288 0034 54686520 		.ascii	"The smallest number that you entered was:%.2f\012\000"
 288      736D616C 
 288      6C657374 
 288      206E756D 
 288      62657220 
 289 0063 00       		.text
 290              	.Letext0:
 291              		.file 2 "c:\\program files (x86)\\cypress\\psoc creator\\4.0\\psoc creator\\import\\gnu\\arm\\4.9.
 292              		.file 3 "c:\\program files (x86)\\cypress\\psoc creator\\4.0\\psoc creator\\import\\gnu\\arm\\4.9.
 293              		.file 4 "Generated_Source\\PSoC5/cytypes.h"
 294              		.file 5 "c:\\program files (x86)\\cypress\\psoc creator\\4.0\\psoc creator\\import\\gnu\\arm\\4.9.
 295              		.file 6 "Generated_Source\\PSoC5/core_cm3.h"
 296              		.file 7 "Generated_Source\\PSoC5/UART_1.h"
 297              		.file 8 "<built-in>"