ARM GAS  C:\Users\vellu\AppData\Local\Temp\ccROobCL.s 			page 1


   1              		.syntax unified
   2              		.cpu cortex-m3
   3              		.fpu softvfp
   4              		.eabi_attribute 20, 1
   5              		.eabi_attribute 21, 1
   6              		.eabi_attribute 23, 3
   7              		.eabi_attribute 24, 1
   8              		.eabi_attribute 25, 1
   9              		.eabi_attribute 26, 1
  10              		.eabi_attribute 30, 1
  11              		.eabi_attribute 34, 1
  12              		.eabi_attribute 18, 4
  13              		.thumb
  14              		.file	"main.c"
  15              		.text
  16              	.Ltext0:
  17              		.cfi_sections	.debug_frame
  18              		.section	.text.hashTagPrinter,"ax",%progbits
  19              		.align	2
  20              		.global	hashTagPrinter
  21              		.thumb
  22              		.thumb_func
  23              		.type	hashTagPrinter, %function
  24              	hashTagPrinter:
  25              	.LFB64:
  26              		.file 1 "main.c"
   1:main.c        **** /* ========================================
   2:main.c        ****  *
   3:main.c        ****  * Copyright YOUR COMPANY, THE YEAR
   4:main.c        ****  * All Rights Reserved
   5:main.c        ****  * UNPUBLISHED, LICENSED SOFTWARE.
   6:main.c        ****  *
   7:main.c        ****  * CONFIDENTIAL AND PROPRIETARY INFORMATION
   8:main.c        ****  * WHICH IS THE PROPERTY OF your company.
   9:main.c        ****  *
  10:main.c        ****  * ========================================
  11:main.c        **** */
  12:main.c        **** #include "project.h"
  13:main.c        **** #include "stdio.h"
  14:main.c        **** #include <stdlib.h>
  15:main.c        **** #include <time.h>
  16:main.c        **** 
  17:main.c        **** void hashTagPrinter(int hash);
  18:main.c        **** 
  19:main.c        **** int main(void)
  20:main.c        **** {
  21:main.c        ****     CyGlobalIntEnable; /* Enable global interrupts. */
  22:main.c        **** 
  23:main.c        ****     /* Place your initialization/startup code here (e.g. MyInst_Start()) */
  24:main.c        ****     UART_1_Start();
  25:main.c        ****     srand(time(NULL));
  26:main.c        ****     int i;
  27:main.c        ****     for (i = 1; i<=10; i++)
  28:main.c        ****     {
  29:main.c        ****         int hash = rand() % 20+1;
  30:main.c        ****         hashTagPrinter(hash);
  31:main.c        ****     }
ARM GAS  C:\Users\vellu\AppData\Local\Temp\ccROobCL.s 			page 2


  32:main.c        ****     
  33:main.c        ****     
  34:main.c        ****     return 0;
  35:main.c        **** }
  36:main.c        **** void hashTagPrinter(int hash)
  37:main.c        **** {
  27              		.loc 1 37 0
  28              		.cfi_startproc
  29              		@ args = 0, pretend = 0, frame = 0
  30              		@ frame_needed = 0, uses_anonymous_args = 0
  31              	.LVL0:
  32 0000 38B5     		push	{r3, r4, r5, lr}
  33              		.cfi_def_cfa_offset 16
  34              		.cfi_offset 3, -16
  35              		.cfi_offset 4, -12
  36              		.cfi_offset 5, -8
  37              		.cfi_offset 14, -4
  38 0002 0546     		mov	r5, r0
  39              	.LVL1:
  38:main.c        ****     int j;
  39:main.c        ****     for (j=0;j<=hash;j++)
  40              		.loc 1 39 0
  41 0004 0024     		movs	r4, #0
  42 0006 03E0     		b	.L2
  43              	.LVL2:
  44              	.L3:
  40:main.c        ****     {
  41:main.c        ****     printf("#");
  45              		.loc 1 41 0 discriminator 3
  46 0008 2320     		movs	r0, #35
  47 000a FFF7FEFF 		bl	putchar
  48              	.LVL3:
  39:main.c        ****     {
  49              		.loc 1 39 0 discriminator 3
  50 000e 0134     		adds	r4, r4, #1
  51              	.LVL4:
  52              	.L2:
  39:main.c        ****     {
  53              		.loc 1 39 0 is_stmt 0 discriminator 1
  54 0010 AC42     		cmp	r4, r5
  55 0012 F9DD     		ble	.L3
  42:main.c        ****     }
  43:main.c        ****     printf("\n");
  56              		.loc 1 43 0 is_stmt 1
  57 0014 0A20     		movs	r0, #10
  58 0016 FFF7FEFF 		bl	putchar
  59              	.LVL5:
  60 001a 38BD     		pop	{r3, r4, r5, pc}
  61              		.cfi_endproc
  62              	.LFE64:
  63              		.size	hashTagPrinter, .-hashTagPrinter
  64              		.section	.text.main,"ax",%progbits
  65              		.align	2
  66              		.global	main
  67              		.thumb
  68              		.thumb_func
  69              		.type	main, %function
ARM GAS  C:\Users\vellu\AppData\Local\Temp\ccROobCL.s 			page 3


  70              	main:
  71              	.LFB63:
  20:main.c        ****     CyGlobalIntEnable; /* Enable global interrupts. */
  72              		.loc 1 20 0
  73              		.cfi_startproc
  74              		@ args = 0, pretend = 0, frame = 0
  75              		@ frame_needed = 0, uses_anonymous_args = 0
  76 0000 10B5     		push	{r4, lr}
  77              		.cfi_def_cfa_offset 8
  78              		.cfi_offset 4, -8
  79              		.cfi_offset 14, -4
  21:main.c        **** 
  80              		.loc 1 21 0
  81              	@ 21 "main.c" 1
  82 0002 62B6     		CPSIE   i
  83              	@ 0 "" 2
  24:main.c        ****     srand(time(NULL));
  84              		.loc 1 24 0
  85              		.thumb
  86 0004 FFF7FEFF 		bl	UART_1_Start
  87              	.LVL6:
  25:main.c        ****     int i;
  88              		.loc 1 25 0
  89 0008 0020     		movs	r0, #0
  90 000a FFF7FEFF 		bl	time
  91              	.LVL7:
  92 000e FFF7FEFF 		bl	srand
  93              	.LVL8:
  27:main.c        ****     {
  94              		.loc 1 27 0
  95 0012 0124     		movs	r4, #1
  96 0014 0FE0     		b	.L6
  97              	.LVL9:
  98              	.L7:
  99              	.LBB2:
  29:main.c        ****         hashTagPrinter(hash);
 100              		.loc 1 29 0 discriminator 3
 101 0016 FFF7FEFF 		bl	rand
 102              	.LVL10:
 103 001a 094B     		ldr	r3, .L9
 104 001c 83FB0032 		smull	r3, r2, r3, r0
 105 0020 C317     		asrs	r3, r0, #31
 106 0022 C3EBE203 		rsb	r3, r3, r2, asr #3
 107 0026 03EB8303 		add	r3, r3, r3, lsl #2
 108 002a 9B00     		lsls	r3, r3, #2
 109 002c C31A     		subs	r3, r0, r3
 110              	.LVL11:
  30:main.c        ****     }
 111              		.loc 1 30 0 discriminator 3
 112 002e 581C     		adds	r0, r3, #1
 113              	.LVL12:
 114 0030 FFF7FEFF 		bl	hashTagPrinter
 115              	.LVL13:
 116              	.LBE2:
  27:main.c        ****     {
 117              		.loc 1 27 0 discriminator 3
 118 0034 0134     		adds	r4, r4, #1
ARM GAS  C:\Users\vellu\AppData\Local\Temp\ccROobCL.s 			page 4


 119              	.LVL14:
 120              	.L6:
  27:main.c        ****     {
 121              		.loc 1 27 0 is_stmt 0 discriminator 1
 122 0036 0A2C     		cmp	r4, #10
 123 0038 EDDD     		ble	.L7
  35:main.c        **** void hashTagPrinter(int hash)
 124              		.loc 1 35 0 is_stmt 1
 125 003a 0020     		movs	r0, #0
 126 003c 10BD     		pop	{r4, pc}
 127              	.LVL15:
 128              	.L10:
 129 003e 00BF     		.align	2
 130              	.L9:
 131 0040 67666666 		.word	1717986919
 132              		.cfi_endproc
 133              	.LFE63:
 134              		.size	main, .-main
 135              		.section	.text._write,"ax",%progbits
 136              		.align	2
 137              		.global	_write
 138              		.thumb
 139              		.thumb_func
 140              		.type	_write, %function
 141              	_write:
 142              	.LFB65:
  44:main.c        **** }
  45:main.c        **** 
  46:main.c        **** int _write(int file, char *ptr, int len)
  47:main.c        **** {
 143              		.loc 1 47 0
 144              		.cfi_startproc
 145              		@ args = 0, pretend = 0, frame = 0
 146              		@ frame_needed = 0, uses_anonymous_args = 0
 147              	.LVL16:
 148 0000 F8B5     		push	{r3, r4, r5, r6, r7, lr}
 149              		.cfi_def_cfa_offset 24
 150              		.cfi_offset 3, -24
 151              		.cfi_offset 4, -20
 152              		.cfi_offset 5, -16
 153              		.cfi_offset 6, -12
 154              		.cfi_offset 7, -8
 155              		.cfi_offset 14, -4
 156 0002 0C46     		mov	r4, r1
 157 0004 1746     		mov	r7, r2
 158              	.LVL17:
  48:main.c        ****     (void)file; /* Parameter is not used, suppress unused argument warning */
  49:main.c        **** 	int n;
  50:main.c        **** 	for(n = 0; n < len; n++) {
 159              		.loc 1 50 0
 160 0006 0025     		movs	r5, #0
 161 0008 0BE0     		b	.L12
 162              	.LVL18:
 163              	.L14:
  51:main.c        ****         if(*ptr == '\n') UART_1_PutChar('\r');
 164              		.loc 1 51 0
 165 000a 2378     		ldrb	r3, [r4]	@ zero_extendqisi2
ARM GAS  C:\Users\vellu\AppData\Local\Temp\ccROobCL.s 			page 5


 166 000c 0A2B     		cmp	r3, #10
 167 000e 02D1     		bne	.L13
 168              		.loc 1 51 0 is_stmt 0 discriminator 1
 169 0010 0D20     		movs	r0, #13
 170 0012 FFF7FEFF 		bl	UART_1_PutChar
 171              	.LVL19:
 172              	.L13:
  52:main.c        **** 		UART_1_PutChar(*ptr++);
 173              		.loc 1 52 0 is_stmt 1 discriminator 2
 174 0016 661C     		adds	r6, r4, #1
 175              	.LVL20:
 176 0018 2078     		ldrb	r0, [r4]	@ zero_extendqisi2
 177 001a FFF7FEFF 		bl	UART_1_PutChar
 178              	.LVL21:
  50:main.c        ****         if(*ptr == '\n') UART_1_PutChar('\r');
 179              		.loc 1 50 0 discriminator 2
 180 001e 0135     		adds	r5, r5, #1
 181              	.LVL22:
 182              		.loc 1 52 0 discriminator 2
 183 0020 3446     		mov	r4, r6
 184              	.LVL23:
 185              	.L12:
  50:main.c        ****         if(*ptr == '\n') UART_1_PutChar('\r');
 186              		.loc 1 50 0 discriminator 1
 187 0022 BD42     		cmp	r5, r7
 188 0024 F1DB     		blt	.L14
  53:main.c        **** 	}
  54:main.c        **** 	return len;
  55:main.c        **** }
 189              		.loc 1 55 0
 190 0026 3846     		mov	r0, r7
 191 0028 F8BD     		pop	{r3, r4, r5, r6, r7, pc}
 192              		.cfi_endproc
 193              	.LFE65:
 194              		.size	_write, .-_write
 195 002a 00BF     		.section	.text._read,"ax",%progbits
 196              		.align	2
 197              		.global	_read
 198              		.thumb
 199              		.thumb_func
 200              		.type	_read, %function
 201              	_read:
 202              	.LFB66:
  56:main.c        **** 
  57:main.c        **** int _read (int file, char *ptr, int count)
  58:main.c        **** {
 203              		.loc 1 58 0
 204              		.cfi_startproc
 205              		@ args = 0, pretend = 0, frame = 0
 206              		@ frame_needed = 0, uses_anonymous_args = 0
 207              	.LVL24:
 208 0000 F8B5     		push	{r3, r4, r5, r6, r7, lr}
 209              		.cfi_def_cfa_offset 24
 210              		.cfi_offset 3, -24
 211              		.cfi_offset 4, -20
 212              		.cfi_offset 5, -16
 213              		.cfi_offset 6, -12
ARM GAS  C:\Users\vellu\AppData\Local\Temp\ccROobCL.s 			page 6


 214              		.cfi_offset 7, -8
 215              		.cfi_offset 14, -4
 216 0002 0F46     		mov	r7, r1
 217 0004 1446     		mov	r4, r2
 218              	.LVL25:
  59:main.c        ****     int chs = 0;
 219              		.loc 1 59 0
 220 0006 0026     		movs	r6, #0
  60:main.c        ****     char ch;
  61:main.c        ****  
  62:main.c        ****     (void)file; /* Parameter is not used, suppress unused argument warning */
  63:main.c        ****     while(count > 0) {
 221              		.loc 1 63 0
 222 0008 12E0     		b	.L18
 223              	.LVL26:
 224              	.L21:
  64:main.c        ****         ch = UART_1_GetChar();
 225              		.loc 1 64 0
 226 000a FFF7FEFF 		bl	UART_1_GetChar
 227              	.LVL27:
  65:main.c        ****         if(ch != 0) {
 228              		.loc 1 65 0
 229 000e 0546     		mov	r5, r0
 230 0010 70B1     		cbz	r0, .L18
  66:main.c        ****             UART_1_PutChar(ch);
 231              		.loc 1 66 0
 232 0012 FFF7FEFF 		bl	UART_1_PutChar
 233              	.LVL28:
  67:main.c        ****             chs++;
 234              		.loc 1 67 0
 235 0016 0136     		adds	r6, r6, #1
 236              	.LVL29:
  68:main.c        ****             if(ch == '\r') {
 237              		.loc 1 68 0
 238 0018 0D2D     		cmp	r5, #13
 239 001a 03D1     		bne	.L19
 240              	.LVL30:
  69:main.c        ****                 ch = '\n';
  70:main.c        ****                 UART_1_PutChar(ch);
 241              		.loc 1 70 0
 242 001c 0A20     		movs	r0, #10
 243 001e FFF7FEFF 		bl	UART_1_PutChar
 244              	.LVL31:
  69:main.c        ****                 ch = '\n';
 245              		.loc 1 69 0
 246 0022 0A25     		movs	r5, #10
 247              	.LVL32:
 248              	.L19:
  71:main.c        ****             }
  72:main.c        ****             *ptr++ = ch;
 249              		.loc 1 72 0
 250 0024 7B1C     		adds	r3, r7, #1
 251              	.LVL33:
 252 0026 3D70     		strb	r5, [r7]
  73:main.c        ****             count--;
 253              		.loc 1 73 0
 254 0028 013C     		subs	r4, r4, #1
ARM GAS  C:\Users\vellu\AppData\Local\Temp\ccROobCL.s 			page 7


 255              	.LVL34:
  74:main.c        ****             if(ch == '\n') break;
 256              		.loc 1 74 0
 257 002a 0A2D     		cmp	r5, #10
 258 002c 02D0     		beq	.L20
  72:main.c        ****             count--;
 259              		.loc 1 72 0
 260 002e 1F46     		mov	r7, r3
 261              	.LVL35:
 262              	.L18:
  63:main.c        ****         ch = UART_1_GetChar();
 263              		.loc 1 63 0
 264 0030 002C     		cmp	r4, #0
 265 0032 EADC     		bgt	.L21
 266              	.LVL36:
 267              	.L20:
  75:main.c        ****         }
  76:main.c        ****     }
  77:main.c        ****     return chs;
  78:main.c        **** }
 268              		.loc 1 78 0
 269 0034 3046     		mov	r0, r6
 270 0036 F8BD     		pop	{r3, r4, r5, r6, r7, pc}
 271              		.cfi_endproc
 272              	.LFE66:
 273              		.size	_read, .-_read
 274              		.text
 275              	.Letext0:
 276              		.file 2 "c:\\program files (x86)\\cypress\\psoc creator\\4.0\\psoc creator\\import\\gnu\\arm\\4.9.
 277              		.file 3 "c:\\program files (x86)\\cypress\\psoc creator\\4.0\\psoc creator\\import\\gnu\\arm\\4.9.
 278              		.file 4 "Generated_Source\\PSoC5/cytypes.h"
 279              		.file 5 "c:\\program files (x86)\\cypress\\psoc creator\\4.0\\psoc creator\\import\\gnu\\arm\\4.9.
 280              		.file 6 "c:\\program files (x86)\\cypress\\psoc creator\\4.0\\psoc creator\\import\\gnu\\arm\\4.9.
 281              		.file 7 "Generated_Source\\PSoC5/UART_1.h"
 282              		.file 8 "Generated_Source\\PSoC5/core_cm3.h"
 283              		.file 9 "<built-in>"
 284              		.file 10 "c:\\program files (x86)\\cypress\\psoc creator\\4.0\\psoc creator\\import\\gnu\\arm\\4.9