ARM GAS  C:\Users\vellu\AppData\Local\Temp\ccTHnTaV.s 			page 1


   1              		.syntax unified
   2              		.cpu cortex-m3
   3              		.fpu softvfp
   4              		.eabi_attribute 20, 1
   5              		.eabi_attribute 21, 1
   6              		.eabi_attribute 23, 3
   7              		.eabi_attribute 24, 1
   8              		.eabi_attribute 25, 1
   9              		.eabi_attribute 26, 1
  10              		.eabi_attribute 30, 1
  11              		.eabi_attribute 34, 1
  12              		.eabi_attribute 18, 4
  13              		.thumb
  14              		.file	"main.c"
  15              		.text
  16              	.Ltext0:
  17              		.cfi_sections	.debug_frame
  18              		.section	.text.askingQuestions,"ax",%progbits
  19              		.align	2
  20              		.global	askingQuestions
  21              		.thumb
  22              		.thumb_func
  23              		.type	askingQuestions, %function
  24              	askingQuestions:
  25              	.LFB64:
  26              		.file 1 "main.c"
   1:main.c        **** /* ========================================
   2:main.c        ****  *
   3:main.c        ****  * Copyright YOUR COMPANY, THE YEAR
   4:main.c        ****  * All Rights Reserved
   5:main.c        ****  * UNPUBLISHED, LICENSED SOFTWARE.
   6:main.c        ****  *
   7:main.c        ****  * CONFIDENTIAL AND PROPRIETARY INFORMATION
   8:main.c        ****  * WHICH IS THE PROPERTY OF your company.
   9:main.c        ****  *
  10:main.c        ****  * ========================================
  11:main.c        **** */
  12:main.c        **** #include "project.h"
  13:main.c        **** #include "stdio.h"
  14:main.c        **** #include "string.h"
  15:main.c        **** #include <stdlib.h>
  16:main.c        **** #include <time.h>
  17:main.c        **** 
  18:main.c        **** void askingQuestions(char *question,char *answer,int maxLength);
  19:main.c        **** #define STR_SIZE 301
  20:main.c        **** int main(void)
  21:main.c        **** {
  22:main.c        ****     CyGlobalIntEnable; /* Enable global interrupts. */
  23:main.c        **** 
  24:main.c        ****     /* Place your initialization/startup code here (e.g. MyInst_Start()) */
  25:main.c        ****     UART_1_Start();
  26:main.c        ****     
  27:main.c        ****     char question1[STR_SIZE]="Enter your name: ";
  28:main.c        ****     char question2[STR_SIZE]="Enter your address: ";
  29:main.c        ****     char question3[STR_SIZE]="Enter postal code: ";
  30:main.c        ****     char theAnswer[STR_SIZE]="";
  31:main.c        ****     char question[STR_SIZE]="";
ARM GAS  C:\Users\vellu\AppData\Local\Temp\ccTHnTaV.s 			page 2


  32:main.c        ****     char answer[STR_SIZE]="";
  33:main.c        ****     int maxLength=STR_SIZE;
  34:main.c        ****     
  35:main.c        ****     strcpy(question,question1);
  36:main.c        ****     askingQuestions(question,answer,maxLength);
  37:main.c        ****     strcpy (theAnswer,answer);
  38:main.c        ****     strcpy(question,question2);
  39:main.c        ****     askingQuestions(question,answer,maxLength);
  40:main.c        ****     strcat (theAnswer,answer);
  41:main.c        ****     strcpy(question,question3);
  42:main.c        ****     askingQuestions(question,answer,maxLength);
  43:main.c        ****     strcat (theAnswer,answer);
  44:main.c        ****     
  45:main.c        ****     printf("\nYour address is: \n%s",theAnswer);
  46:main.c        ****     return 0;
  47:main.c        **** 
  48:main.c        **** }
  49:main.c        **** void askingQuestions (char *question, char *answer,int maxLength)
  50:main.c        **** {
  27              		.loc 1 50 0
  28              		.cfi_startproc
  29              		@ args = 0, pretend = 0, frame = 0
  30              		@ frame_needed = 0, uses_anonymous_args = 0
  31              	.LVL0:
  32 0000 F8B5     		push	{r3, r4, r5, r6, r7, lr}
  33              		.cfi_def_cfa_offset 24
  34              		.cfi_offset 3, -24
  35              		.cfi_offset 4, -20
  36              		.cfi_offset 5, -16
  37              		.cfi_offset 6, -12
  38              		.cfi_offset 7, -8
  39              		.cfi_offset 14, -4
  40 0002 0746     		mov	r7, r0
  41 0004 0C46     		mov	r4, r1
  42 0006 1646     		mov	r6, r2
  51:main.c        ****     int length = strlen(question);
  43              		.loc 1 51 0
  44 0008 FFF7FEFF 		bl	strlen
  45              	.LVL1:
  46 000c 0546     		mov	r5, r0
  47              	.LVL2:
  52:main.c        ****     int length2 = strlen(answer);
  48              		.loc 1 52 0
  49 000e 2046     		mov	r0, r4
  50              	.LVL3:
  51 0010 FFF7FEFF 		bl	strlen
  52              	.LVL4:
  53:main.c        ****     if (length <= STR_SIZE-1 && length2 <= STR_SIZE-1){
  53              		.loc 1 53 0
  54 0014 B5F5967F 		cmp	r5, #300
  55 0018 16DC     		bgt	.L1
  56              		.loc 1 53 0 is_stmt 0 discriminator 1
  57 001a B0F5967F 		cmp	r0, #300
  58 001e 13DC     		bgt	.L1
  54:main.c        ****     printf("\n%s ",question);
  59              		.loc 1 54 0 is_stmt 1
  60 0020 0A48     		ldr	r0, .L5
ARM GAS  C:\Users\vellu\AppData\Local\Temp\ccTHnTaV.s 			page 3


  61              	.LVL5:
  62 0022 3946     		mov	r1, r7
  63 0024 FFF7FEFF 		bl	printf
  64              	.LVL6:
  55:main.c        ****     if (answer[strlen(answer)-1]=='\n'){
  65              		.loc 1 55 0
  66 0028 2046     		mov	r0, r4
  67 002a FFF7FEFF 		bl	strlen
  68              	.LVL7:
  69 002e 0138     		subs	r0, r0, #1
  70 0030 235C     		ldrb	r3, [r4, r0]	@ zero_extendqisi2
  71 0032 0A2B     		cmp	r3, #10
  72 0034 01D1     		bne	.L3
  56:main.c        ****         answer[strlen(answer)-1]='\0';   
  73              		.loc 1 56 0
  74 0036 0023     		movs	r3, #0
  75 0038 2354     		strb	r3, [r4, r0]
  76              	.L3:
  57:main.c        ****     }
  58:main.c        ****     fgets(answer,maxLength,stdin);
  77              		.loc 1 58 0
  78 003a 054B     		ldr	r3, .L5+4
  79 003c 1B68     		ldr	r3, [r3]
  80 003e 2046     		mov	r0, r4
  81 0040 3146     		mov	r1, r6
  82 0042 5A68     		ldr	r2, [r3, #4]
  83 0044 FFF7FEFF 		bl	fgets
  84              	.LVL8:
  85              	.L1:
  86 0048 F8BD     		pop	{r3, r4, r5, r6, r7, pc}
  87              	.LVL9:
  88              	.L6:
  89 004a 00BF     		.align	2
  90              	.L5:
  91 004c 00000000 		.word	.LC0
  92 0050 00000000 		.word	_impure_ptr
  93              		.cfi_endproc
  94              	.LFE64:
  95              		.size	askingQuestions, .-askingQuestions
  96              		.section	.text.main,"ax",%progbits
  97              		.align	2
  98              		.global	main
  99              		.thumb
 100              		.thumb_func
 101              		.type	main, %function
 102              	main:
 103              	.LFB63:
  21:main.c        ****     CyGlobalIntEnable; /* Enable global interrupts. */
 104              		.loc 1 21 0
 105              		.cfi_startproc
 106              		@ args = 0, pretend = 0, frame = 1824
 107              		@ frame_needed = 0, uses_anonymous_args = 0
 108 0000 70B5     		push	{r4, r5, r6, lr}
 109              		.cfi_def_cfa_offset 16
 110              		.cfi_offset 4, -16
 111              		.cfi_offset 5, -12
 112              		.cfi_offset 6, -8
ARM GAS  C:\Users\vellu\AppData\Local\Temp\ccTHnTaV.s 			page 4


 113              		.cfi_offset 14, -4
 114 0002 ADF5E46D 		sub	sp, sp, #1824
 115              		.cfi_def_cfa_offset 1840
  22:main.c        **** 
 116              		.loc 1 22 0
 117              	@ 22 "main.c" 1
 118 0006 62B6     		CPSIE   i
 119              	@ 0 "" 2
  25:main.c        ****     
 120              		.loc 1 25 0
 121              		.thumb
 122 0008 FFF7FEFF 		bl	UART_1_Start
 123              	.LVL10:
  27:main.c        ****     char question2[STR_SIZE]="Enter your address: ";
 124              		.loc 1 27 0
 125 000c 3B4C     		ldr	r4, .L9
 126 000e 0DF5BE65 		add	r5, sp, #1520
 127 0012 2646     		mov	r6, r4
 128 0014 0FCE     		ldmia	r6!, {r0, r1, r2, r3}
 129 0016 0FC5     		stmia	r5!, {r0, r1, r2, r3}
 130 0018 3368     		ldr	r3, [r6]
 131 001a 2B80     		strh	r3, [r5]	@ movhi
 132 001c 0DF20260 		addw	r0, sp, #1538
 133 0020 0021     		movs	r1, #0
 134 0022 40F21B12 		movw	r2, #283
 135 0026 FFF7FEFF 		bl	memset
 136              	.LVL11:
  28:main.c        ****     char question3[STR_SIZE]="Enter postal code: ";
 137              		.loc 1 28 0
 138 002a 0DF59865 		add	r5, sp, #1216
 139 002e 04F59876 		add	r6, r4, #304
 140 0032 0FCE     		ldmia	r6!, {r0, r1, r2, r3}
 141 0034 0FC5     		stmia	r5!, {r0, r1, r2, r3}
 142 0036 96E80300 		ldmia	r6, {r0, r1}
 143 003a 45F8040B 		str	r0, [r5], #4
 144 003e 2970     		strb	r1, [r5]
 145 0040 0DF2D540 		addw	r0, sp, #1237
 146 0044 0021     		movs	r1, #0
 147 0046 4FF48C72 		mov	r2, #280
 148 004a FFF7FEFF 		bl	memset
 149              	.LVL12:
  29:main.c        ****     char theAnswer[STR_SIZE]="";
 150              		.loc 1 29 0
 151 004e E4AD     		add	r5, sp, #912
 152 0050 04F51874 		add	r4, r4, #608
 153 0054 0FCC     		ldmia	r4!, {r0, r1, r2, r3}
 154 0056 0FC5     		stmia	r5!, {r0, r1, r2, r3}
 155 0058 2368     		ldr	r3, [r4]
 156 005a 2B60     		str	r3, [r5]
 157 005c E9A8     		add	r0, sp, #932
 158 005e 0021     		movs	r1, #0
 159 0060 40F21912 		movw	r2, #281
 160 0064 FFF7FEFF 		bl	memset
 161              	.LVL13:
  30:main.c        ****     char question[STR_SIZE]="";
 162              		.loc 1 30 0
 163 0068 0024     		movs	r4, #0
ARM GAS  C:\Users\vellu\AppData\Local\Temp\ccTHnTaV.s 			page 5


 164 006a 9894     		str	r4, [sp, #608]
 165 006c 40F22915 		movw	r5, #297
 166 0070 99A8     		add	r0, sp, #612
 167 0072 2146     		mov	r1, r4
 168 0074 2A46     		mov	r2, r5
 169 0076 FFF7FEFF 		bl	memset
 170              	.LVL14:
  31:main.c        ****     char answer[STR_SIZE]="";
 171              		.loc 1 31 0
 172 007a 4C94     		str	r4, [sp, #304]
 173 007c 4DA8     		add	r0, sp, #308
 174 007e 2146     		mov	r1, r4
 175 0080 2A46     		mov	r2, r5
 176 0082 FFF7FEFF 		bl	memset
 177              	.LVL15:
  32:main.c        ****     int maxLength=STR_SIZE;
 178              		.loc 1 32 0
 179 0086 0094     		str	r4, [sp]
 180 0088 01A8     		add	r0, sp, #4
 181 008a 2146     		mov	r1, r4
 182 008c 2A46     		mov	r2, r5
 183 008e FFF7FEFF 		bl	memset
 184              	.LVL16:
  35:main.c        ****     askingQuestions(question,answer,maxLength);
 185              		.loc 1 35 0
 186 0092 4CA8     		add	r0, sp, #304
 187 0094 0DF5BE61 		add	r1, sp, #1520
 188 0098 FFF7FEFF 		bl	strcpy
 189              	.LVL17:
  36:main.c        ****     strcpy (theAnswer,answer);
 190              		.loc 1 36 0
 191 009c 4CA8     		add	r0, sp, #304
 192 009e 6946     		mov	r1, sp
 193 00a0 40F22D12 		movw	r2, #301
 194 00a4 FFF7FEFF 		bl	askingQuestions
 195              	.LVL18:
  37:main.c        ****     strcpy(question,question2);
 196              		.loc 1 37 0
 197 00a8 98A8     		add	r0, sp, #608
 198 00aa 6946     		mov	r1, sp
 199 00ac FFF7FEFF 		bl	strcpy
 200              	.LVL19:
  38:main.c        ****     askingQuestions(question,answer,maxLength);
 201              		.loc 1 38 0
 202 00b0 4CA8     		add	r0, sp, #304
 203 00b2 0DF59861 		add	r1, sp, #1216
 204 00b6 FFF7FEFF 		bl	strcpy
 205              	.LVL20:
  39:main.c        ****     strcat (theAnswer,answer);
 206              		.loc 1 39 0
 207 00ba 4CA8     		add	r0, sp, #304
 208 00bc 6946     		mov	r1, sp
 209 00be 40F22D12 		movw	r2, #301
 210 00c2 FFF7FEFF 		bl	askingQuestions
 211              	.LVL21:
  40:main.c        ****     strcpy(question,question3);
 212              		.loc 1 40 0
ARM GAS  C:\Users\vellu\AppData\Local\Temp\ccTHnTaV.s 			page 6


 213 00c6 98A8     		add	r0, sp, #608
 214 00c8 6946     		mov	r1, sp
 215 00ca FFF7FEFF 		bl	strcat
 216              	.LVL22:
  41:main.c        ****     askingQuestions(question,answer,maxLength);
 217              		.loc 1 41 0
 218 00ce 4CA8     		add	r0, sp, #304
 219 00d0 E4A9     		add	r1, sp, #912
 220 00d2 FFF7FEFF 		bl	strcpy
 221              	.LVL23:
  42:main.c        ****     strcat (theAnswer,answer);
 222              		.loc 1 42 0
 223 00d6 4CA8     		add	r0, sp, #304
 224 00d8 6946     		mov	r1, sp
 225 00da 40F22D12 		movw	r2, #301
 226 00de FFF7FEFF 		bl	askingQuestions
 227              	.LVL24:
  43:main.c        ****     
 228              		.loc 1 43 0
 229 00e2 98A8     		add	r0, sp, #608
 230 00e4 6946     		mov	r1, sp
 231 00e6 FFF7FEFF 		bl	strcat
 232              	.LVL25:
  45:main.c        ****     return 0;
 233              		.loc 1 45 0
 234 00ea 0548     		ldr	r0, .L9+4
 235 00ec 98A9     		add	r1, sp, #608
 236 00ee FFF7FEFF 		bl	printf
 237              	.LVL26:
  48:main.c        **** void askingQuestions (char *question, char *answer,int maxLength)
 238              		.loc 1 48 0
 239 00f2 2046     		mov	r0, r4
 240 00f4 0DF5E46D 		add	sp, sp, #1824
 241              		.cfi_def_cfa_offset 16
 242              		@ sp needed
 243 00f8 70BD     		pop	{r4, r5, r6, pc}
 244              	.L10:
 245 00fa 00BF     		.align	2
 246              	.L9:
 247 00fc 00000000 		.word	.LANCHOR0
 248 0100 08000000 		.word	.LC4
 249              		.cfi_endproc
 250              	.LFE63:
 251              		.size	main, .-main
 252              		.section	.text._write,"ax",%progbits
 253              		.align	2
 254              		.global	_write
 255              		.thumb
 256              		.thumb_func
 257              		.type	_write, %function
 258              	_write:
 259              	.LFB65:
  59:main.c        ****     }
  60:main.c        ****     
  61:main.c        ****     
  62:main.c        ****     
  63:main.c        ****     
ARM GAS  C:\Users\vellu\AppData\Local\Temp\ccTHnTaV.s 			page 7


  64:main.c        ****     //printf("Length = %d\n",strlen(&answer));
  65:main.c        **** }
  66:main.c        **** 
  67:main.c        **** int _write(int file, char *ptr, int len)
  68:main.c        **** {
 260              		.loc 1 68 0
 261              		.cfi_startproc
 262              		@ args = 0, pretend = 0, frame = 0
 263              		@ frame_needed = 0, uses_anonymous_args = 0
 264              	.LVL27:
 265 0000 F8B5     		push	{r3, r4, r5, r6, r7, lr}
 266              		.cfi_def_cfa_offset 24
 267              		.cfi_offset 3, -24
 268              		.cfi_offset 4, -20
 269              		.cfi_offset 5, -16
 270              		.cfi_offset 6, -12
 271              		.cfi_offset 7, -8
 272              		.cfi_offset 14, -4
 273 0002 0C46     		mov	r4, r1
 274 0004 1746     		mov	r7, r2
 275              	.LVL28:
  69:main.c        ****     (void)file; /* Parameter is not used, suppress unused argument warning */
  70:main.c        **** 	int n;
  71:main.c        **** 	for(n = 0; n < len; n++) {
 276              		.loc 1 71 0
 277 0006 0025     		movs	r5, #0
 278 0008 0BE0     		b	.L12
 279              	.LVL29:
 280              	.L14:
  72:main.c        ****         if(*ptr == '\n') UART_1_PutChar('\r');
 281              		.loc 1 72 0
 282 000a 2378     		ldrb	r3, [r4]	@ zero_extendqisi2
 283 000c 0A2B     		cmp	r3, #10
 284 000e 02D1     		bne	.L13
 285              		.loc 1 72 0 is_stmt 0 discriminator 1
 286 0010 0D20     		movs	r0, #13
 287 0012 FFF7FEFF 		bl	UART_1_PutChar
 288              	.LVL30:
 289              	.L13:
  73:main.c        **** 		UART_1_PutChar(*ptr++);
 290              		.loc 1 73 0 is_stmt 1 discriminator 2
 291 0016 661C     		adds	r6, r4, #1
 292              	.LVL31:
 293 0018 2078     		ldrb	r0, [r4]	@ zero_extendqisi2
 294 001a FFF7FEFF 		bl	UART_1_PutChar
 295              	.LVL32:
  71:main.c        ****         if(*ptr == '\n') UART_1_PutChar('\r');
 296              		.loc 1 71 0 discriminator 2
 297 001e 0135     		adds	r5, r5, #1
 298              	.LVL33:
 299              		.loc 1 73 0 discriminator 2
 300 0020 3446     		mov	r4, r6
 301              	.LVL34:
 302              	.L12:
  71:main.c        ****         if(*ptr == '\n') UART_1_PutChar('\r');
 303              		.loc 1 71 0 discriminator 1
 304 0022 BD42     		cmp	r5, r7
ARM GAS  C:\Users\vellu\AppData\Local\Temp\ccTHnTaV.s 			page 8


 305 0024 F1DB     		blt	.L14
  74:main.c        **** 	}
  75:main.c        **** 	return len;
  76:main.c        **** }
 306              		.loc 1 76 0
 307 0026 3846     		mov	r0, r7
 308 0028 F8BD     		pop	{r3, r4, r5, r6, r7, pc}
 309              		.cfi_endproc
 310              	.LFE65:
 311              		.size	_write, .-_write
 312 002a 00BF     		.section	.text._read,"ax",%progbits
 313              		.align	2
 314              		.global	_read
 315              		.thumb
 316              		.thumb_func
 317              		.type	_read, %function
 318              	_read:
 319              	.LFB66:
  77:main.c        **** 
  78:main.c        **** int _read (int file, char *ptr, int count)
  79:main.c        **** {
 320              		.loc 1 79 0
 321              		.cfi_startproc
 322              		@ args = 0, pretend = 0, frame = 0
 323              		@ frame_needed = 0, uses_anonymous_args = 0
 324              	.LVL35:
 325 0000 F8B5     		push	{r3, r4, r5, r6, r7, lr}
 326              		.cfi_def_cfa_offset 24
 327              		.cfi_offset 3, -24
 328              		.cfi_offset 4, -20
 329              		.cfi_offset 5, -16
 330              		.cfi_offset 6, -12
 331              		.cfi_offset 7, -8
 332              		.cfi_offset 14, -4
 333 0002 0F46     		mov	r7, r1
 334 0004 1446     		mov	r4, r2
 335              	.LVL36:
  80:main.c        ****     int chs = 0;
 336              		.loc 1 80 0
 337 0006 0026     		movs	r6, #0
  81:main.c        ****     char ch;
  82:main.c        ****  
  83:main.c        ****     (void)file; /* Parameter is not used, suppress unused argument warning */
  84:main.c        ****     while(count > 0) {
 338              		.loc 1 84 0
 339 0008 12E0     		b	.L18
 340              	.LVL37:
 341              	.L21:
  85:main.c        ****         ch = UART_1_GetChar();
 342              		.loc 1 85 0
 343 000a FFF7FEFF 		bl	UART_1_GetChar
 344              	.LVL38:
  86:main.c        ****         if(ch != 0) {
 345              		.loc 1 86 0
 346 000e 0546     		mov	r5, r0
 347 0010 70B1     		cbz	r0, .L18
  87:main.c        ****             UART_1_PutChar(ch);
ARM GAS  C:\Users\vellu\AppData\Local\Temp\ccTHnTaV.s 			page 9


 348              		.loc 1 87 0
 349 0012 FFF7FEFF 		bl	UART_1_PutChar
 350              	.LVL39:
  88:main.c        ****             chs++;
 351              		.loc 1 88 0
 352 0016 0136     		adds	r6, r6, #1
 353              	.LVL40:
  89:main.c        ****             if(ch == '\r') {
 354              		.loc 1 89 0
 355 0018 0D2D     		cmp	r5, #13
 356 001a 03D1     		bne	.L19
 357              	.LVL41:
  90:main.c        ****                 ch = '\n';
  91:main.c        ****                 UART_1_PutChar(ch);
 358              		.loc 1 91 0
 359 001c 0A20     		movs	r0, #10
 360 001e FFF7FEFF 		bl	UART_1_PutChar
 361              	.LVL42:
  90:main.c        ****                 ch = '\n';
 362              		.loc 1 90 0
 363 0022 0A25     		movs	r5, #10
 364              	.LVL43:
 365              	.L19:
  92:main.c        ****             }
  93:main.c        ****             *ptr++ = ch;
 366              		.loc 1 93 0
 367 0024 7B1C     		adds	r3, r7, #1
 368              	.LVL44:
 369 0026 3D70     		strb	r5, [r7]
  94:main.c        ****             count--;
 370              		.loc 1 94 0
 371 0028 013C     		subs	r4, r4, #1
 372              	.LVL45:
  95:main.c        ****             if(ch == '\n') break;
 373              		.loc 1 95 0
 374 002a 0A2D     		cmp	r5, #10
 375 002c 02D0     		beq	.L20
  93:main.c        ****             count--;
 376              		.loc 1 93 0
 377 002e 1F46     		mov	r7, r3
 378              	.LVL46:
 379              	.L18:
  84:main.c        ****         ch = UART_1_GetChar();
 380              		.loc 1 84 0
 381 0030 002C     		cmp	r4, #0
 382 0032 EADC     		bgt	.L21
 383              	.LVL47:
 384              	.L20:
  96:main.c        ****         }
  97:main.c        ****     }
  98:main.c        ****     return chs;
  99:main.c        **** }
 385              		.loc 1 99 0
 386 0034 3046     		mov	r0, r6
 387 0036 F8BD     		pop	{r3, r4, r5, r6, r7, pc}
 388              		.cfi_endproc
 389              	.LFE66:
ARM GAS  C:\Users\vellu\AppData\Local\Temp\ccTHnTaV.s 			page 10


 390              		.size	_read, .-_read
 391              		.section	.rodata
 392              		.align	2
 393              		.set	.LANCHOR0,. + 0
 394              	.LC1:
 395 0000 456E7465 		.ascii	"Enter your name: \000"
 395      7220796F 
 395      7572206E 
 395      616D653A 
 395      2000
 396 0012 00000000 		.space	283
 396      00000000 
 396      00000000 
 396      00000000 
 396      00000000 
 397 012d 000000   		.space	3
 398              	.LC2:
 399 0130 456E7465 		.ascii	"Enter your address: \000"
 399      7220796F 
 399      75722061 
 399      64647265 
 399      73733A20 
 400 0145 00000000 		.space	280
 400      00000000 
 400      00000000 
 400      00000000 
 400      00000000 
 401 025d 000000   		.space	3
 402              	.LC3:
 403 0260 456E7465 		.ascii	"Enter postal code: \000"
 403      7220706F 
 403      7374616C 
 403      20636F64 
 403      653A2000 
 404 0274 00000000 		.space	281
 404      00000000 
 404      00000000 
 404      00000000 
 404      00000000 
 405 038d 000000   		.section	.rodata.str1.4,"aMS",%progbits,1
 406              		.align	2
 407              	.LC0:
 408 0000 0A257320 		.ascii	"\012%s \000"
 408      00
 409 0005 000000   		.space	3
 410              	.LC4:
 411 0008 0A596F75 		.ascii	"\012Your address is: \012%s\000"
 411      72206164 
 411      64726573 
 411      73206973 
 411      3A200A25 
 412 001e 0000     		.text
 413              	.Letext0:
 414              		.file 2 "c:\\program files (x86)\\cypress\\psoc creator\\4.0\\psoc creator\\import\\gnu\\arm\\4.9.
 415              		.file 3 "c:\\program files (x86)\\cypress\\psoc creator\\4.0\\psoc creator\\import\\gnu\\arm\\4.9.
 416              		.file 4 "Generated_Source\\PSoC5/cytypes.h"
 417              		.file 5 "c:\\program files (x86)\\cypress\\psoc creator\\4.0\\psoc creator\\import\\gnu\\arm\\4.9.
ARM GAS  C:\Users\vellu\AppData\Local\Temp\ccTHnTaV.s 			page 11


 418              		.file 6 "c:\\program files (x86)\\cypress\\psoc creator\\4.0\\psoc creator\\import\\gnu\\arm\\4.9.
 419              		.file 7 "c:\\program files (x86)\\cypress\\psoc creator\\4.0\\psoc creator\\import\\gnu\\arm\\4.9.
 420              		.file 8 "c:\\program files (x86)\\cypress\\psoc creator\\4.0\\psoc creator\\import\\gnu\\arm\\4.9.
 421              		.file 9 "c:\\program files (x86)\\cypress\\psoc creator\\4.0\\psoc creator\\import\\gnu\\arm\\4.9.
 422              		.file 10 "Generated_Source\\PSoC5/core_cm3.h"
 423              		.file 11 "c:\\program files (x86)\\cypress\\psoc creator\\4.0\\psoc creator\\import\\gnu\\arm\\4.9
 424              		.file 12 "Generated_Source\\PSoC5/UART_1.h"