ARM GAS  C:\Users\vellu\AppData\Local\Temp\ccd1R4jB.s 			page 1


   1              		.syntax unified
   2              		.cpu cortex-m3
   3              		.fpu softvfp
   4              		.eabi_attribute 20, 1
   5              		.eabi_attribute 21, 1
   6              		.eabi_attribute 23, 3
   7              		.eabi_attribute 24, 1
   8              		.eabi_attribute 25, 1
   9              		.eabi_attribute 26, 1
  10              		.eabi_attribute 30, 1
  11              		.eabi_attribute 34, 1
  12              		.eabi_attribute 18, 4
  13              		.thumb
  14              		.file	"main.c"
  15              		.text
  16              	.Ltext0:
  17              		.cfi_sections	.debug_frame
  18              		.global	__aeabi_fdiv
  19              		.global	__aeabi_fmul
  20              		.global	__aeabi_fadd
  21              		.global	__aeabi_fsub
  22              		.global	__aeabi_fcmpgt
  23              		.global	__aeabi_f2d
  24              		.section	.text.main,"ax",%progbits
  25              		.align	2
  26              		.global	main
  27              		.thumb
  28              		.thumb_func
  29              		.type	main, %function
  30              	main:
  31              	.LFB63:
  32              		.file 1 "main.c"
   1:main.c        **** /* ========================================
   2:main.c        ****  *
   3:main.c        ****  * Copyright YOUR COMPANY, THE YEAR
   4:main.c        ****  * All Rights Reserved
   5:main.c        ****  * UNPUBLISHED, LICENSED SOFTWARE.
   6:main.c        ****  *
   7:main.c        ****  * CONFIDENTIAL AND PROPRIETARY INFORMATION
   8:main.c        ****  * WHICH IS THE PROPERTY OF your company.
   9:main.c        ****  *
  10:main.c        ****  * ========================================
  11:main.c        **** */
  12:main.c        **** #include "project.h"
  13:main.c        **** #include "stdio.h"
  14:main.c        **** 
  15:main.c        **** int main(void)
  16:main.c        **** {
  33              		.loc 1 16 0
  34              		.cfi_startproc
  35              		@ args = 0, pretend = 0, frame = 16
  36              		@ frame_needed = 0, uses_anonymous_args = 0
  37 0000 F0B5     		push	{r4, r5, r6, r7, lr}
  38              		.cfi_def_cfa_offset 20
  39              		.cfi_offset 4, -20
  40              		.cfi_offset 5, -16
  41              		.cfi_offset 6, -12
ARM GAS  C:\Users\vellu\AppData\Local\Temp\ccd1R4jB.s 			page 2


  42              		.cfi_offset 7, -8
  43              		.cfi_offset 14, -4
  44 0002 85B0     		sub	sp, sp, #20
  45              		.cfi_def_cfa_offset 40
  17:main.c        ****     CyGlobalIntEnable; /* Enable global interrupts. */
  46              		.loc 1 17 0
  47              	@ 17 "main.c" 1
  48 0004 62B6     		CPSIE   i
  49              	@ 0 "" 2
  18:main.c        **** 
  19:main.c        ****     /* Place your initialization/startup code here (e.g. MyInst_Start()) */
  20:main.c        ****     UART_1_Start();
  50              		.loc 1 20 0
  51              		.thumb
  52 0006 FFF7FEFF 		bl	UART_1_Start
  53              	.LVL0:
  21:main.c        ****     
  22:main.c        ****     float interestRate;
  23:main.c        ****     float interestOneP;
  24:main.c        ****     float interestVal;
  25:main.c        ****     float payment;
  26:main.c        ****     float loan;
  27:main.c        ****     float debt;
  28:main.c        ****     float balance;
  29:main.c        ****     
  30:main.c        ****     printf("\nHow much you want to borrow: ");
  54              		.loc 1 30 0
  55 000a 2A48     		ldr	r0, .L9
  56 000c FFF7FEFF 		bl	printf
  57              	.LVL1:
  31:main.c        ****     scanf("%f",&loan);
  58              		.loc 1 31 0
  59 0010 294C     		ldr	r4, .L9+4
  60 0012 2046     		mov	r0, r4
  61 0014 01A9     		add	r1, sp, #4
  62 0016 FFF7FEFF 		bl	scanf
  63              	.LVL2:
  32:main.c        ****     printf("\nEnter interest rate (percent): ");
  64              		.loc 1 32 0
  65 001a 2848     		ldr	r0, .L9+8
  66 001c FFF7FEFF 		bl	printf
  67              	.LVL3:
  33:main.c        ****     scanf("%f",&interestRate);
  68              		.loc 1 33 0
  69 0020 2046     		mov	r0, r4
  70 0022 03A9     		add	r1, sp, #12
  71 0024 FFF7FEFF 		bl	scanf
  72              	.LVL4:
  34:main.c        ****     
  35:main.c        ****     balance=loan;
  73              		.loc 1 35 0
  74 0028 019C     		ldr	r4, [sp, #4]	@ float
  75              	.LVL5:
  36:main.c        ****     interestOneP=interestRate/100;
  76              		.loc 1 36 0
  77 002a 0398     		ldr	r0, [sp, #12]	@ float
  78 002c 2449     		ldr	r1, .L9+12
ARM GAS  C:\Users\vellu\AppData\Local\Temp\ccd1R4jB.s 			page 3


  79 002e FFF7FEFF 		bl	__aeabi_fdiv
  80              	.LVL6:
  81 0032 0746     		mov	r7, r0
  82              	.LVL7:
  37:main.c        ****     interestVal=loan*interestOneP;
  83              		.loc 1 37 0
  84 0034 2046     		mov	r0, r4
  85              	.LVL8:
  86 0036 3946     		mov	r1, r7
  87 0038 FFF7FEFF 		bl	__aeabi_fmul
  88              	.LVL9:
  89 003c 0146     		mov	r1, r0
  90              	.LVL10:
  38:main.c        ****     balance+=interestVal;
  91              		.loc 1 38 0
  92 003e 2046     		mov	r0, r4
  93              	.LVL11:
  94 0040 FFF7FEFF 		bl	__aeabi_fadd
  95              	.LVL12:
  96 0044 0546     		mov	r5, r0
  97              	.LVL13:
  98              	.L5:
  39:main.c        ****     
  40:main.c        ****     do
  41:main.c        ****     {
  42:main.c        ****         printf("\nEnter payment: ");
  99              		.loc 1 42 0
 100 0046 1F48     		ldr	r0, .L9+16
 101 0048 FFF7FEFF 		bl	printf
 102              	.LVL14:
  43:main.c        ****         scanf("%f",&payment);
 103              		.loc 1 43 0
 104 004c 1A48     		ldr	r0, .L9+4
 105 004e 02A9     		add	r1, sp, #8
 106 0050 FFF7FEFF 		bl	scanf
 107              	.LVL15:
  44:main.c        ****         
  45:main.c        ****         debt=balance-payment;
 108              		.loc 1 45 0
 109 0054 029C     		ldr	r4, [sp, #8]	@ float
 110 0056 2846     		mov	r0, r5
 111 0058 2146     		mov	r1, r4
 112 005a FFF7FEFF 		bl	__aeabi_fsub
 113              	.LVL16:
 114 005e 0646     		mov	r6, r0
 115              	.LVL17:
  46:main.c        ****         
  47:main.c        ****         
  48:main.c        ****         if(payment>0)
 116              		.loc 1 48 0
 117 0060 2046     		mov	r0, r4
 118              	.LVL18:
 119 0062 0021     		movs	r1, #0
 120 0064 FFF7FEFF 		bl	__aeabi_fcmpgt
 121              	.LVL19:
 122 0068 A0B1     		cbz	r0, .L7
  49:main.c        ****         {
ARM GAS  C:\Users\vellu\AppData\Local\Temp\ccd1R4jB.s 			page 4


  50:main.c        ****             interestVal=balance*interestOneP;
 123              		.loc 1 50 0
 124 006a 2846     		mov	r0, r5
 125 006c 3946     		mov	r1, r7
 126 006e FFF7FEFF 		bl	__aeabi_fmul
 127              	.LVL20:
 128 0072 0146     		mov	r1, r0
 129              	.LVL21:
  51:main.c        ****             balance+=interestVal;
 130              		.loc 1 51 0
 131 0074 2846     		mov	r0, r5
 132              	.LVL22:
 133 0076 FFF7FEFF 		bl	__aeabi_fadd
 134              	.LVL23:
  52:main.c        ****             balance-=payment;
 135              		.loc 1 52 0
 136 007a 2146     		mov	r1, r4
 137 007c FFF7FEFF 		bl	__aeabi_fsub
 138              	.LVL24:
 139 0080 0546     		mov	r5, r0
 140              	.LVL25:
  53:main.c        ****             
  54:main.c        ****             printf("\nYou still own: %f\n",debt);
 141              		.loc 1 54 0
 142 0082 3046     		mov	r0, r6
 143              	.LVL26:
 144 0084 FFF7FEFF 		bl	__aeabi_f2d
 145              	.LVL27:
 146 0088 0246     		mov	r2, r0
 147 008a 0B46     		mov	r3, r1
 148 008c 0E48     		ldr	r0, .L9+20
 149 008e FFF7FEFF 		bl	printf
 150              	.LVL28:
 151 0092 07E0     		b	.L4
 152              	.L7:
  55:main.c        ****         }
  56:main.c        ****         else
  57:main.c        ****         {
  58:main.c        ****             printf("\aPlease enter positive values.");
 153              		.loc 1 58 0
 154 0094 0D48     		ldr	r0, .L9+24
 155 0096 FFF7FEFF 		bl	printf
 156              	.LVL29:
  59:main.c        ****             
  60:main.c        ****             debt+=payment;
 157              		.loc 1 60 0
 158 009a 3046     		mov	r0, r6
 159 009c 0299     		ldr	r1, [sp, #8]	@ float
 160 009e FFF7FEFF 		bl	__aeabi_fadd
 161              	.LVL30:
 162 00a2 0646     		mov	r6, r0
 163              	.LVL31:
 164              	.L4:
  61:main.c        ****         }
  62:main.c        ****     }while(debt>0);
 165              		.loc 1 62 0
 166 00a4 3046     		mov	r0, r6
ARM GAS  C:\Users\vellu\AppData\Local\Temp\ccd1R4jB.s 			page 5


 167 00a6 0021     		movs	r1, #0
 168 00a8 FFF7FEFF 		bl	__aeabi_fcmpgt
 169              	.LVL32:
 170 00ac 0028     		cmp	r0, #0
 171 00ae CAD1     		bne	.L5
  63:main.c        ****     
  64:main.c        ****     
  65:main.c        ****     
  66:main.c        ****     return 0;
  67:main.c        **** }
 172              		.loc 1 67 0
 173 00b0 05B0     		add	sp, sp, #20
 174              		.cfi_def_cfa_offset 20
 175              		@ sp needed
 176 00b2 F0BD     		pop	{r4, r5, r6, r7, pc}
 177              	.LVL33:
 178              	.L10:
 179              		.align	2
 180              	.L9:
 181 00b4 00000000 		.word	.LC0
 182 00b8 20000000 		.word	.LC1
 183 00bc 24000000 		.word	.LC2
 184 00c0 0000C842 		.word	1120403456
 185 00c4 48000000 		.word	.LC3
 186 00c8 5C000000 		.word	.LC4
 187 00cc 70000000 		.word	.LC5
 188              		.cfi_endproc
 189              	.LFE63:
 190              		.size	main, .-main
 191              		.section	.text._write,"ax",%progbits
 192              		.align	2
 193              		.global	_write
 194              		.thumb
 195              		.thumb_func
 196              		.type	_write, %function
 197              	_write:
 198              	.LFB64:
  68:main.c        **** 
  69:main.c        **** int _write(int file, char *ptr, int len)
  70:main.c        **** {
 199              		.loc 1 70 0
 200              		.cfi_startproc
 201              		@ args = 0, pretend = 0, frame = 0
 202              		@ frame_needed = 0, uses_anonymous_args = 0
 203              	.LVL34:
 204 0000 F8B5     		push	{r3, r4, r5, r6, r7, lr}
 205              		.cfi_def_cfa_offset 24
 206              		.cfi_offset 3, -24
 207              		.cfi_offset 4, -20
 208              		.cfi_offset 5, -16
 209              		.cfi_offset 6, -12
 210              		.cfi_offset 7, -8
 211              		.cfi_offset 14, -4
 212 0002 0C46     		mov	r4, r1
 213 0004 1746     		mov	r7, r2
 214              	.LVL35:
  71:main.c        ****     (void)file; /* Parameter is not used, suppress unused argument warning */
ARM GAS  C:\Users\vellu\AppData\Local\Temp\ccd1R4jB.s 			page 6


  72:main.c        **** 	int n;
  73:main.c        **** 	for(n = 0; n < len; n++) {
 215              		.loc 1 73 0
 216 0006 0025     		movs	r5, #0
 217 0008 0BE0     		b	.L12
 218              	.LVL36:
 219              	.L14:
  74:main.c        ****         if(*ptr == '\n') UART_1_PutChar('\r');
 220              		.loc 1 74 0
 221 000a 2378     		ldrb	r3, [r4]	@ zero_extendqisi2
 222 000c 0A2B     		cmp	r3, #10
 223 000e 02D1     		bne	.L13
 224              		.loc 1 74 0 is_stmt 0 discriminator 1
 225 0010 0D20     		movs	r0, #13
 226 0012 FFF7FEFF 		bl	UART_1_PutChar
 227              	.LVL37:
 228              	.L13:
  75:main.c        **** 		UART_1_PutChar(*ptr++);
 229              		.loc 1 75 0 is_stmt 1 discriminator 2
 230 0016 661C     		adds	r6, r4, #1
 231              	.LVL38:
 232 0018 2078     		ldrb	r0, [r4]	@ zero_extendqisi2
 233 001a FFF7FEFF 		bl	UART_1_PutChar
 234              	.LVL39:
  73:main.c        ****         if(*ptr == '\n') UART_1_PutChar('\r');
 235              		.loc 1 73 0 discriminator 2
 236 001e 0135     		adds	r5, r5, #1
 237              	.LVL40:
 238              		.loc 1 75 0 discriminator 2
 239 0020 3446     		mov	r4, r6
 240              	.LVL41:
 241              	.L12:
  73:main.c        ****         if(*ptr == '\n') UART_1_PutChar('\r');
 242              		.loc 1 73 0 discriminator 1
 243 0022 BD42     		cmp	r5, r7
 244 0024 F1DB     		blt	.L14
  76:main.c        **** 	}
  77:main.c        **** 	return len;
  78:main.c        **** }
 245              		.loc 1 78 0
 246 0026 3846     		mov	r0, r7
 247 0028 F8BD     		pop	{r3, r4, r5, r6, r7, pc}
 248              		.cfi_endproc
 249              	.LFE64:
 250              		.size	_write, .-_write
 251 002a 00BF     		.section	.text._read,"ax",%progbits
 252              		.align	2
 253              		.global	_read
 254              		.thumb
 255              		.thumb_func
 256              		.type	_read, %function
 257              	_read:
 258              	.LFB65:
  79:main.c        **** 
  80:main.c        **** int _read (int file, char *ptr, int count)
  81:main.c        **** {
 259              		.loc 1 81 0
ARM GAS  C:\Users\vellu\AppData\Local\Temp\ccd1R4jB.s 			page 7


 260              		.cfi_startproc
 261              		@ args = 0, pretend = 0, frame = 0
 262              		@ frame_needed = 0, uses_anonymous_args = 0
 263              	.LVL42:
 264 0000 F8B5     		push	{r3, r4, r5, r6, r7, lr}
 265              		.cfi_def_cfa_offset 24
 266              		.cfi_offset 3, -24
 267              		.cfi_offset 4, -20
 268              		.cfi_offset 5, -16
 269              		.cfi_offset 6, -12
 270              		.cfi_offset 7, -8
 271              		.cfi_offset 14, -4
 272 0002 0F46     		mov	r7, r1
 273 0004 1446     		mov	r4, r2
 274              	.LVL43:
  82:main.c        ****     int chs = 0;
 275              		.loc 1 82 0
 276 0006 0026     		movs	r6, #0
  83:main.c        ****     char ch;
  84:main.c        ****  
  85:main.c        ****     (void)file; /* Parameter is not used, suppress unused argument warning */
  86:main.c        ****     while(count > 0) {
 277              		.loc 1 86 0
 278 0008 12E0     		b	.L18
 279              	.LVL44:
 280              	.L21:
  87:main.c        ****         ch = UART_1_GetChar();
 281              		.loc 1 87 0
 282 000a FFF7FEFF 		bl	UART_1_GetChar
 283              	.LVL45:
  88:main.c        ****         if(ch != 0) {
 284              		.loc 1 88 0
 285 000e 0546     		mov	r5, r0
 286 0010 70B1     		cbz	r0, .L18
  89:main.c        ****             UART_1_PutChar(ch);
 287              		.loc 1 89 0
 288 0012 FFF7FEFF 		bl	UART_1_PutChar
 289              	.LVL46:
  90:main.c        ****             chs++;
 290              		.loc 1 90 0
 291 0016 0136     		adds	r6, r6, #1
 292              	.LVL47:
  91:main.c        ****             if(ch == '\r') {
 293              		.loc 1 91 0
 294 0018 0D2D     		cmp	r5, #13
 295 001a 03D1     		bne	.L19
 296              	.LVL48:
  92:main.c        ****                 ch = '\n';
  93:main.c        ****                 UART_1_PutChar(ch);
 297              		.loc 1 93 0
 298 001c 0A20     		movs	r0, #10
 299 001e FFF7FEFF 		bl	UART_1_PutChar
 300              	.LVL49:
  92:main.c        ****                 ch = '\n';
 301              		.loc 1 92 0
 302 0022 0A25     		movs	r5, #10
 303              	.LVL50:
ARM GAS  C:\Users\vellu\AppData\Local\Temp\ccd1R4jB.s 			page 8


 304              	.L19:
  94:main.c        ****             }
  95:main.c        ****             *ptr++ = ch;
 305              		.loc 1 95 0
 306 0024 7B1C     		adds	r3, r7, #1
 307              	.LVL51:
 308 0026 3D70     		strb	r5, [r7]
  96:main.c        ****             count--;
 309              		.loc 1 96 0
 310 0028 013C     		subs	r4, r4, #1
 311              	.LVL52:
  97:main.c        ****             if(ch == '\n') break;
 312              		.loc 1 97 0
 313 002a 0A2D     		cmp	r5, #10
 314 002c 02D0     		beq	.L20
  95:main.c        ****             count--;
 315              		.loc 1 95 0
 316 002e 1F46     		mov	r7, r3
 317              	.LVL53:
 318              	.L18:
  86:main.c        ****         ch = UART_1_GetChar();
 319              		.loc 1 86 0
 320 0030 002C     		cmp	r4, #0
 321 0032 EADC     		bgt	.L21
 322              	.LVL54:
 323              	.L20:
  98:main.c        ****         }
  99:main.c        ****     }
 100:main.c        ****     return chs;
 101:main.c        **** }
 324              		.loc 1 101 0
 325 0034 3046     		mov	r0, r6
 326 0036 F8BD     		pop	{r3, r4, r5, r6, r7, pc}
 327              		.cfi_endproc
 328              	.LFE65:
 329              		.size	_read, .-_read
 330              		.section	.rodata.str1.4,"aMS",%progbits,1
 331              		.align	2
 332              	.LC0:
 333 0000 0A486F77 		.ascii	"\012How much you want to borrow: \000"
 333      206D7563 
 333      6820796F 
 333      75207761 
 333      6E742074 
 334 001f 00       		.space	1
 335              	.LC1:
 336 0020 256600   		.ascii	"%f\000"
 337 0023 00       		.space	1
 338              	.LC2:
 339 0024 0A456E74 		.ascii	"\012Enter interest rate (percent): \000"
 339      65722069 
 339      6E746572 
 339      65737420 
 339      72617465 
 340 0045 000000   		.space	3
 341              	.LC3:
 342 0048 0A456E74 		.ascii	"\012Enter payment: \000"
ARM GAS  C:\Users\vellu\AppData\Local\Temp\ccd1R4jB.s 			page 9


 342      65722070 
 342      61796D65 
 342      6E743A20 
 342      00
 343 0059 000000   		.space	3
 344              	.LC4:
 345 005c 0A596F75 		.ascii	"\012You still own: %f\012\000"
 345      20737469 
 345      6C6C206F 
 345      776E3A20 
 345      25660A00 
 346              	.LC5:
 347 0070 07506C65 		.ascii	"\007Please enter positive values.\000"
 347      61736520 
 347      656E7465 
 347      7220706F 
 347      73697469 
 348 008f 00       		.text
 349              	.Letext0:
 350              		.file 2 "c:\\program files (x86)\\cypress\\psoc creator\\4.0\\psoc creator\\import\\gnu\\arm\\4.9.
 351              		.file 3 "c:\\program files (x86)\\cypress\\psoc creator\\4.0\\psoc creator\\import\\gnu\\arm\\4.9.
 352              		.file 4 "Generated_Source\\PSoC5/cytypes.h"
 353              		.file 5 "c:\\program files (x86)\\cypress\\psoc creator\\4.0\\psoc creator\\import\\gnu\\arm\\4.9.
 354              		.file 6 "Generated_Source\\PSoC5/core_cm3.h"
 355              		.file 7 "Generated_Source\\PSoC5/UART_1.h"