ARM GAS  C:\Users\vellu\AppData\Local\Temp\cceqroNk.s 			page 1


   1              		.syntax unified
   2              		.cpu cortex-m3
   3              		.fpu softvfp
   4              		.eabi_attribute 20, 1
   5              		.eabi_attribute 21, 1
   6              		.eabi_attribute 23, 3
   7              		.eabi_attribute 24, 1
   8              		.eabi_attribute 25, 1
   9              		.eabi_attribute 26, 1
  10              		.eabi_attribute 30, 1
  11              		.eabi_attribute 34, 1
  12              		.eabi_attribute 18, 4
  13              		.thumb
  14              		.file	"main.c"
  15              		.text
  16              	.Ltext0:
  17              		.cfi_sections	.debug_frame
  18              		.section	.text.main,"ax",%progbits
  19              		.align	2
  20              		.global	main
  21              		.thumb
  22              		.thumb_func
  23              		.type	main, %function
  24              	main:
  25              	.LFB63:
  26              		.file 1 "main.c"
   1:main.c        **** /* ========================================
   2:main.c        ****  *
   3:main.c        ****  * Copyright YOUR COMPANY, THE YEAR
   4:main.c        ****  * All Rights Reserved
   5:main.c        ****  * UNPUBLISHED, LICENSED SOFTWARE.
   6:main.c        ****  *
   7:main.c        ****  * CONFIDENTIAL AND PROPRIETARY INFORMATION
   8:main.c        ****  * WHICH IS THE PROPERTY OF your company.
   9:main.c        ****  *
  10:main.c        ****  * ========================================
  11:main.c        **** */
  12:main.c        **** #include "project.h"
  13:main.c        **** #include "stdio.h"
  14:main.c        **** 
  15:main.c        **** int main(void)
  16:main.c        **** {
  27              		.loc 1 16 0
  28              		.cfi_startproc
  29              		@ args = 0, pretend = 0, frame = 0
  30              		@ frame_needed = 0, uses_anonymous_args = 0
  31 0000 08B5     		push	{r3, lr}
  32              		.cfi_def_cfa_offset 8
  33              		.cfi_offset 3, -8
  34              		.cfi_offset 14, -4
  17:main.c        ****     CyGlobalIntEnable; /* Enable global interrupts. */
  35              		.loc 1 17 0
  36              	@ 17 "main.c" 1
  37 0002 62B6     		CPSIE   i
  38              	@ 0 "" 2
  18:main.c        **** 
  19:main.c        ****     /* Place your initialization/startup code here (e.g. MyInst_Start()) */
ARM GAS  C:\Users\vellu\AppData\Local\Temp\cceqroNk.s 			page 2


  20:main.c        ****     UART_1_Start();
  39              		.loc 1 20 0
  40              		.thumb
  41 0004 FFF7FEFF 		bl	UART_1_Start
  42              	.LVL0:
  21:main.c        **** 
  22:main.c        ****     float cur_salary=2117.12;
  23:main.c        ****     float cur_tax_percent=20;
  24:main.c        ****     float one_percent=100;
  25:main.c        ****     float cur_tax_val;
  26:main.c        ****     float cur_money;
  27:main.c        ****     float salary_rise=2000;
  28:main.c        ****     float new_salary;
  29:main.c        ****     float new_tax_percent;
  30:main.c        ****     float new_tax_val;
  31:main.c        ****     float after_tax;
  32:main.c        ****     
  33:main.c        ****     //counting taxes and stuff
  34:main.c        ****     cur_tax_val=cur_salary/one_percent*cur_tax_percent;
  35:main.c        ****     cur_money=cur_salary-cur_tax_val;
  36:main.c        ****     new_salary=cur_salary+salary_rise;
  37:main.c        ****     new_tax_percent=cur_tax_percent*1.675;
  38:main.c        ****     new_tax_val=new_salary/one_percent*new_tax_percent;
  39:main.c        ****     after_tax=new_salary-new_tax_val;
  40:main.c        ****     
  41:main.c        ****     printf("My salary is %.2f euros.\n",cur_salary);
  43              		.loc 1 41 0
  44 0008 2348     		ldr	r0, .L3+48
  45 000a 17A3     		adr	r3, .L3
  46 000c D3E90023 		ldrd	r2, [r3]
  47 0010 FFF7FEFF 		bl	printf
  48              	.LVL1:
  42:main.c        ****     printf("My tax percentage is %.2f percent.\n",cur_tax_percent);
  49              		.loc 1 42 0
  50 0014 2148     		ldr	r0, .L3+52
  51 0016 0022     		movs	r2, #0
  52 0018 214B     		ldr	r3, .L3+56
  53 001a FFF7FEFF 		bl	printf
  54              	.LVL2:
  43:main.c        ****     printf("I have to pay %.2f euros tax.\n",cur_tax_val);
  55              		.loc 1 43 0
  56 001e 2148     		ldr	r0, .L3+60
  57 0020 13A3     		adr	r3, .L3+8
  58 0022 D3E90023 		ldrd	r2, [r3]
  59 0026 FFF7FEFF 		bl	printf
  60              	.LVL3:
  44:main.c        ****     printf("I have %.2f euros to spend or save.\n",cur_money);
  61              		.loc 1 44 0
  62 002a 1F48     		ldr	r0, .L3+64
  63 002c 12A3     		adr	r3, .L3+16
  64 002e D3E90023 		ldrd	r2, [r3]
  65 0032 FFF7FEFF 		bl	printf
  66              	.LVL4:
  45:main.c        ****     printf("My boss raises my salary by %.2f euros.\n",salary_rise);
  67              		.loc 1 45 0
  68 0036 1D48     		ldr	r0, .L3+68
  69 0038 0022     		movs	r2, #0
ARM GAS  C:\Users\vellu\AppData\Local\Temp\cceqroNk.s 			page 3


  70 003a 1D4B     		ldr	r3, .L3+72
  71 003c FFF7FEFF 		bl	printf
  72              	.LVL5:
  46:main.c        ****     printf("My new salary is %.2f euros.\n",new_salary);
  73              		.loc 1 46 0
  74 0040 1C48     		ldr	r0, .L3+76
  75 0042 0FA3     		adr	r3, .L3+24
  76 0044 D3E90023 		ldrd	r2, [r3]
  77 0048 FFF7FEFF 		bl	printf
  78              	.LVL6:
  47:main.c        ****     printf("My new Tax percent is %.2f. \n",new_tax_percent);
  79              		.loc 1 47 0
  80 004c 1A48     		ldr	r0, .L3+80
  81 004e 0EA3     		adr	r3, .L3+32
  82 0050 D3E90023 		ldrd	r2, [r3]
  83 0054 FFF7FEFF 		bl	printf
  84              	.LVL7:
  48:main.c        ****     printf("After taxes I have %.2f euros.\n",after_tax);
  85              		.loc 1 48 0
  86 0058 1848     		ldr	r0, .L3+84
  87 005a 0DA3     		adr	r3, .L3+40
  88 005c D3E90023 		ldrd	r2, [r3]
  89 0060 FFF7FEFF 		bl	printf
  90              	.LVL8:
  49:main.c        ****     return 0;
  50:main.c        **** }
  91              		.loc 1 50 0
  92 0064 0020     		movs	r0, #0
  93 0066 08BD     		pop	{r3, pc}
  94              	.L4:
  95              		.align	3
  96              	.L3:
  97 0068 00000080 		.word	-2147483648
  98 006c 3D8AA040 		.word	1084262973
  99 0070 000000E0 		.word	-536870912
 100 0074 C8767A40 		.word	1081767624
 101 0078 000000C0 		.word	-1073741824
 102 007c C8769A40 		.word	1083864776
 103 0080 000000C0 		.word	-1073741824
 104 0084 1E15B040 		.word	1085281566
 105 0088 00000000 		.word	0
 106 008c 00C04040 		.word	1077985280
 107 0090 00000000 		.word	0
 108 0094 C563A540 		.word	1084580805
 109 0098 00000000 		.word	.LC0
 110 009c 1C000000 		.word	.LC1
 111 00a0 00003440 		.word	1077149696
 112 00a4 40000000 		.word	.LC2
 113 00a8 60000000 		.word	.LC3
 114 00ac 88000000 		.word	.LC4
 115 00b0 00409F40 		.word	1084178432
 116 00b4 B4000000 		.word	.LC5
 117 00b8 D4000000 		.word	.LC6
 118 00bc F4000000 		.word	.LC7
 119              		.cfi_endproc
 120              	.LFE63:
 121              		.size	main, .-main
ARM GAS  C:\Users\vellu\AppData\Local\Temp\cceqroNk.s 			page 4


 122              		.section	.text._write,"ax",%progbits
 123              		.align	2
 124              		.global	_write
 125              		.thumb
 126              		.thumb_func
 127              		.type	_write, %function
 128              	_write:
 129              	.LFB64:
  51:main.c        **** int _write(int file, char *ptr, int len)
  52:main.c        **** {
 130              		.loc 1 52 0
 131              		.cfi_startproc
 132              		@ args = 0, pretend = 0, frame = 0
 133              		@ frame_needed = 0, uses_anonymous_args = 0
 134              	.LVL9:
 135 0000 F8B5     		push	{r3, r4, r5, r6, r7, lr}
 136              		.cfi_def_cfa_offset 24
 137              		.cfi_offset 3, -24
 138              		.cfi_offset 4, -20
 139              		.cfi_offset 5, -16
 140              		.cfi_offset 6, -12
 141              		.cfi_offset 7, -8
 142              		.cfi_offset 14, -4
 143 0002 0C46     		mov	r4, r1
 144 0004 1746     		mov	r7, r2
 145              	.LVL10:
  53:main.c        ****     (void)file; /* Parameter is not used, suppress unused argument warning */
  54:main.c        **** 	int n;
  55:main.c        **** 	for(n = 0; n < len; n++) {
 146              		.loc 1 55 0
 147 0006 0025     		movs	r5, #0
 148 0008 0BE0     		b	.L6
 149              	.LVL11:
 150              	.L8:
  56:main.c        ****         if(*ptr == '\n') UART_1_PutChar('\r');
 151              		.loc 1 56 0
 152 000a 2378     		ldrb	r3, [r4]	@ zero_extendqisi2
 153 000c 0A2B     		cmp	r3, #10
 154 000e 02D1     		bne	.L7
 155              		.loc 1 56 0 is_stmt 0 discriminator 1
 156 0010 0D20     		movs	r0, #13
 157 0012 FFF7FEFF 		bl	UART_1_PutChar
 158              	.LVL12:
 159              	.L7:
  57:main.c        **** 		UART_1_PutChar(*ptr++);
 160              		.loc 1 57 0 is_stmt 1 discriminator 2
 161 0016 661C     		adds	r6, r4, #1
 162              	.LVL13:
 163 0018 2078     		ldrb	r0, [r4]	@ zero_extendqisi2
 164 001a FFF7FEFF 		bl	UART_1_PutChar
 165              	.LVL14:
  55:main.c        ****         if(*ptr == '\n') UART_1_PutChar('\r');
 166              		.loc 1 55 0 discriminator 2
 167 001e 0135     		adds	r5, r5, #1
 168              	.LVL15:
 169              		.loc 1 57 0 discriminator 2
 170 0020 3446     		mov	r4, r6
ARM GAS  C:\Users\vellu\AppData\Local\Temp\cceqroNk.s 			page 5


 171              	.LVL16:
 172              	.L6:
  55:main.c        ****         if(*ptr == '\n') UART_1_PutChar('\r');
 173              		.loc 1 55 0 discriminator 1
 174 0022 BD42     		cmp	r5, r7
 175 0024 F1DB     		blt	.L8
  58:main.c        **** 	}
  59:main.c        **** 	return len;
  60:main.c        **** }
 176              		.loc 1 60 0
 177 0026 3846     		mov	r0, r7
 178 0028 F8BD     		pop	{r3, r4, r5, r6, r7, pc}
 179              		.cfi_endproc
 180              	.LFE64:
 181              		.size	_write, .-_write
 182 002a 00BF     		.section	.text._read,"ax",%progbits
 183              		.align	2
 184              		.global	_read
 185              		.thumb
 186              		.thumb_func
 187              		.type	_read, %function
 188              	_read:
 189              	.LFB65:
  61:main.c        **** 
  62:main.c        **** int _read (int file, char *ptr, int count)
  63:main.c        **** {
 190              		.loc 1 63 0
 191              		.cfi_startproc
 192              		@ args = 0, pretend = 0, frame = 0
 193              		@ frame_needed = 0, uses_anonymous_args = 0
 194              	.LVL17:
 195 0000 F8B5     		push	{r3, r4, r5, r6, r7, lr}
 196              		.cfi_def_cfa_offset 24
 197              		.cfi_offset 3, -24
 198              		.cfi_offset 4, -20
 199              		.cfi_offset 5, -16
 200              		.cfi_offset 6, -12
 201              		.cfi_offset 7, -8
 202              		.cfi_offset 14, -4
 203 0002 0F46     		mov	r7, r1
 204 0004 1446     		mov	r4, r2
 205              	.LVL18:
  64:main.c        ****     int chs = 0;
 206              		.loc 1 64 0
 207 0006 0026     		movs	r6, #0
  65:main.c        ****     char ch;
  66:main.c        ****  
  67:main.c        ****     (void)file; /* Parameter is not used, suppress unused argument warning */
  68:main.c        ****     while(count > 0) {
 208              		.loc 1 68 0
 209 0008 12E0     		b	.L12
 210              	.LVL19:
 211              	.L15:
  69:main.c        ****         ch = UART_1_GetChar();
 212              		.loc 1 69 0
 213 000a FFF7FEFF 		bl	UART_1_GetChar
 214              	.LVL20:
ARM GAS  C:\Users\vellu\AppData\Local\Temp\cceqroNk.s 			page 6


  70:main.c        ****         if(ch != 0) {
 215              		.loc 1 70 0
 216 000e 0546     		mov	r5, r0
 217 0010 70B1     		cbz	r0, .L12
  71:main.c        ****             UART_1_PutChar(ch);
 218              		.loc 1 71 0
 219 0012 FFF7FEFF 		bl	UART_1_PutChar
 220              	.LVL21:
  72:main.c        ****             chs++;
 221              		.loc 1 72 0
 222 0016 0136     		adds	r6, r6, #1
 223              	.LVL22:
  73:main.c        ****             if(ch == '\r') {
 224              		.loc 1 73 0
 225 0018 0D2D     		cmp	r5, #13
 226 001a 03D1     		bne	.L13
 227              	.LVL23:
  74:main.c        ****                 ch = '\n';
  75:main.c        ****                 UART_1_PutChar(ch);
 228              		.loc 1 75 0
 229 001c 0A20     		movs	r0, #10
 230 001e FFF7FEFF 		bl	UART_1_PutChar
 231              	.LVL24:
  74:main.c        ****                 ch = '\n';
 232              		.loc 1 74 0
 233 0022 0A25     		movs	r5, #10
 234              	.LVL25:
 235              	.L13:
  76:main.c        ****             }
  77:main.c        ****             *ptr++ = ch;
 236              		.loc 1 77 0
 237 0024 7B1C     		adds	r3, r7, #1
 238              	.LVL26:
 239 0026 3D70     		strb	r5, [r7]
  78:main.c        ****             count--;
 240              		.loc 1 78 0
 241 0028 013C     		subs	r4, r4, #1
 242              	.LVL27:
  79:main.c        ****             if(ch == '\n') break;
 243              		.loc 1 79 0
 244 002a 0A2D     		cmp	r5, #10
 245 002c 02D0     		beq	.L14
  77:main.c        ****             count--;
 246              		.loc 1 77 0
 247 002e 1F46     		mov	r7, r3
 248              	.LVL28:
 249              	.L12:
  68:main.c        ****         ch = UART_1_GetChar();
 250              		.loc 1 68 0
 251 0030 002C     		cmp	r4, #0
 252 0032 EADC     		bgt	.L15
 253              	.LVL29:
 254              	.L14:
  80:main.c        ****         }
  81:main.c        ****     }
  82:main.c        ****     return chs;
  83:main.c        **** }
ARM GAS  C:\Users\vellu\AppData\Local\Temp\cceqroNk.s 			page 7


 255              		.loc 1 83 0
 256 0034 3046     		mov	r0, r6
 257 0036 F8BD     		pop	{r3, r4, r5, r6, r7, pc}
 258              		.cfi_endproc
 259              	.LFE65:
 260              		.size	_read, .-_read
 261              		.section	.rodata.str1.4,"aMS",%progbits,1
 262              		.align	2
 263              	.LC0:
 264 0000 4D792073 		.ascii	"My salary is %.2f euros.\012\000"
 264      616C6172 
 264      79206973 
 264      20252E32 
 264      66206575 
 265 001a 0000     		.space	2
 266              	.LC1:
 267 001c 4D792074 		.ascii	"My tax percentage is %.2f percent.\012\000"
 267      61782070 
 267      65726365 
 267      6E746167 
 267      65206973 
 268              	.LC2:
 269 0040 49206861 		.ascii	"I have to pay %.2f euros tax.\012\000"
 269      76652074 
 269      6F207061 
 269      7920252E 
 269      32662065 
 270 005f 00       		.space	1
 271              	.LC3:
 272 0060 49206861 		.ascii	"I have %.2f euros to spend or save.\012\000"
 272      76652025 
 272      2E326620 
 272      6575726F 
 272      7320746F 
 273 0085 000000   		.space	3
 274              	.LC4:
 275 0088 4D792062 		.ascii	"My boss raises my salary by %.2f euros.\012\000"
 275      6F737320 
 275      72616973 
 275      6573206D 
 275      79207361 
 276 00b1 000000   		.space	3
 277              	.LC5:
 278 00b4 4D79206E 		.ascii	"My new salary is %.2f euros.\012\000"
 278      65772073 
 278      616C6172 
 278      79206973 
 278      20252E32 
 279 00d2 0000     		.space	2
 280              	.LC6:
 281 00d4 4D79206E 		.ascii	"My new Tax percent is %.2f. \012\000"
 281      65772054 
 281      61782070 
 281      65726365 
 281      6E742069 
 282 00f2 0000     		.space	2
 283              	.LC7:
ARM GAS  C:\Users\vellu\AppData\Local\Temp\cceqroNk.s 			page 8


 284 00f4 41667465 		.ascii	"After taxes I have %.2f euros.\012\000"
 284      72207461 
 284      78657320 
 284      49206861 
 284      76652025 
 285              		.text
 286              	.Letext0:
 287              		.file 2 "c:\\program files (x86)\\cypress\\psoc creator\\4.0\\psoc creator\\import\\gnu\\arm\\4.9.
 288              		.file 3 "c:\\program files (x86)\\cypress\\psoc creator\\4.0\\psoc creator\\import\\gnu\\arm\\4.9.
 289              		.file 4 "Generated_Source\\PSoC5/cytypes.h"
 290              		.file 5 "Generated_Source\\PSoC5/core_cm3.h"
 291              		.file 6 "Generated_Source\\PSoC5/UART_1.h"
 292              		.file 7 "c:\\program files (x86)\\cypress\\psoc creator\\4.0\\psoc creator\\import\\gnu\\arm\\4.9.