ARM GAS  C:\Users\vellu\AppData\Local\Temp\cc1nuW6c.s 			page 1


   1              		.syntax unified
   2              		.cpu cortex-m3
   3              		.fpu softvfp
   4              		.eabi_attribute 20, 1
   5              		.eabi_attribute 21, 1
   6              		.eabi_attribute 23, 3
   7              		.eabi_attribute 24, 1
   8              		.eabi_attribute 25, 1
   9              		.eabi_attribute 26, 1
  10              		.eabi_attribute 30, 1
  11              		.eabi_attribute 34, 1
  12              		.eabi_attribute 18, 4
  13              		.thumb
  14              		.file	"main.c"
  15              		.text
  16              	.Ltext0:
  17              		.cfi_sections	.debug_frame
  18              		.section	.text.main,"ax",%progbits
  19              		.align	2
  20              		.global	main
  21              		.thumb
  22              		.thumb_func
  23              		.type	main, %function
  24              	main:
  25              	.LFB63:
  26              		.file 1 "main.c"
   1:main.c        **** /* ========================================
   2:main.c        ****  *
   3:main.c        ****  * Copyright YOUR COMPANY, THE YEAR
   4:main.c        ****  * All Rights Reserved
   5:main.c        ****  * UNPUBLISHED, LICENSED SOFTWARE.
   6:main.c        ****  *
   7:main.c        ****  * CONFIDENTIAL AND PROPRIETARY INFORMATION
   8:main.c        ****  * WHICH IS THE PROPERTY OF your company.
   9:main.c        ****  *
  10:main.c        ****  * ========================================
  11:main.c        **** */
  12:main.c        **** #include "project.h"
  13:main.c        **** #include "stdio.h"
  14:main.c        **** 
  15:main.c        **** int main(void)
  16:main.c        **** {
  27              		.loc 1 16 0
  28              		.cfi_startproc
  29              		@ args = 0, pretend = 0, frame = 0
  30              		@ frame_needed = 0, uses_anonymous_args = 0
  31 0000 08B5     		push	{r3, lr}
  32              		.cfi_def_cfa_offset 8
  33              		.cfi_offset 3, -8
  34              		.cfi_offset 14, -4
  17:main.c        ****     CyGlobalIntEnable; /* Enable global interrupts. */
  35              		.loc 1 17 0
  36              	@ 17 "main.c" 1
  37 0002 62B6     		CPSIE   i
  38              	@ 0 "" 2
  18:main.c        **** 
  19:main.c        ****     /* Place your initialization/startup code here (e.g. MyInst_Start()) */
ARM GAS  C:\Users\vellu\AppData\Local\Temp\cc1nuW6c.s 			page 2


  20:main.c        ****     UART_1_Start();
  39              		.loc 1 20 0
  40              		.thumb
  41 0004 FFF7FEFF 		bl	UART_1_Start
  42              	.LVL0:
  21:main.c        ****     
  22:main.c        ****     int birth_d=1;
  23:main.c        ****     int birth_m=7;
  24:main.c        ****     int birth_y=1989;
  25:main.c        ****     int cur_d=23;
  26:main.c        ****     int cur_m=10;
  27:main.c        ****     int cur_y=2017;
  28:main.c        ****     int cur_age;
  29:main.c        ****     
  30:main.c        ****     printf("I was born on %d.%d.%d\n",birth_d,birth_m,birth_y);
  43              		.loc 1 30 0
  44 0008 0948     		ldr	r0, .L3
  45 000a 0121     		movs	r1, #1
  46 000c 0722     		movs	r2, #7
  47 000e 40F2C573 		movw	r3, #1989
  48 0012 FFF7FEFF 		bl	printf
  49              	.LVL1:
  31:main.c        ****     printf("Today is %d.%d.%d\n",cur_d,cur_m,cur_y);
  50              		.loc 1 31 0
  51 0016 0748     		ldr	r0, .L3+4
  52 0018 1721     		movs	r1, #23
  53 001a 0A22     		movs	r2, #10
  54 001c 40F2E173 		movw	r3, #2017
  55 0020 FFF7FEFF 		bl	printf
  56              	.LVL2:
  32:main.c        ****     cur_age=cur_y-birth_y;
  33:main.c        ****     printf("I am %d years old\n",cur_age);
  57              		.loc 1 33 0
  58 0024 0448     		ldr	r0, .L3+8
  59 0026 1C21     		movs	r1, #28
  60 0028 FFF7FEFF 		bl	printf
  61              	.LVL3:
  34:main.c        ****     return 0;
  35:main.c        ****     
  36:main.c        **** }
  62              		.loc 1 36 0
  63 002c 0020     		movs	r0, #0
  64 002e 08BD     		pop	{r3, pc}
  65              	.L4:
  66              		.align	2
  67              	.L3:
  68 0030 00000000 		.word	.LC0
  69 0034 18000000 		.word	.LC1
  70 0038 2C000000 		.word	.LC2
  71              		.cfi_endproc
  72              	.LFE63:
  73              		.size	main, .-main
  74              		.section	.text._write,"ax",%progbits
  75              		.align	2
  76              		.global	_write
  77              		.thumb
  78              		.thumb_func
ARM GAS  C:\Users\vellu\AppData\Local\Temp\cc1nuW6c.s 			page 3


  79              		.type	_write, %function
  80              	_write:
  81              	.LFB64:
  37:main.c        **** int _write(int file, char *ptr, int len)
  38:main.c        **** {
  82              		.loc 1 38 0
  83              		.cfi_startproc
  84              		@ args = 0, pretend = 0, frame = 0
  85              		@ frame_needed = 0, uses_anonymous_args = 0
  86              	.LVL4:
  87 0000 F8B5     		push	{r3, r4, r5, r6, r7, lr}
  88              		.cfi_def_cfa_offset 24
  89              		.cfi_offset 3, -24
  90              		.cfi_offset 4, -20
  91              		.cfi_offset 5, -16
  92              		.cfi_offset 6, -12
  93              		.cfi_offset 7, -8
  94              		.cfi_offset 14, -4
  95 0002 0C46     		mov	r4, r1
  96 0004 1746     		mov	r7, r2
  97              	.LVL5:
  39:main.c        ****     (void)file; /* Parameter is not used, suppress unused argument warning */
  40:main.c        **** 	int n;
  41:main.c        **** 	for(n = 0; n < len; n++) {
  98              		.loc 1 41 0
  99 0006 0025     		movs	r5, #0
 100 0008 0BE0     		b	.L6
 101              	.LVL6:
 102              	.L8:
  42:main.c        ****         if(*ptr == '\n') UART_1_PutChar('\r');
 103              		.loc 1 42 0
 104 000a 2378     		ldrb	r3, [r4]	@ zero_extendqisi2
 105 000c 0A2B     		cmp	r3, #10
 106 000e 02D1     		bne	.L7
 107              		.loc 1 42 0 is_stmt 0 discriminator 1
 108 0010 0D20     		movs	r0, #13
 109 0012 FFF7FEFF 		bl	UART_1_PutChar
 110              	.LVL7:
 111              	.L7:
  43:main.c        **** 		UART_1_PutChar(*ptr++);
 112              		.loc 1 43 0 is_stmt 1 discriminator 2
 113 0016 661C     		adds	r6, r4, #1
 114              	.LVL8:
 115 0018 2078     		ldrb	r0, [r4]	@ zero_extendqisi2
 116 001a FFF7FEFF 		bl	UART_1_PutChar
 117              	.LVL9:
  41:main.c        ****         if(*ptr == '\n') UART_1_PutChar('\r');
 118              		.loc 1 41 0 discriminator 2
 119 001e 0135     		adds	r5, r5, #1
 120              	.LVL10:
 121              		.loc 1 43 0 discriminator 2
 122 0020 3446     		mov	r4, r6
 123              	.LVL11:
 124              	.L6:
  41:main.c        ****         if(*ptr == '\n') UART_1_PutChar('\r');
 125              		.loc 1 41 0 discriminator 1
 126 0022 BD42     		cmp	r5, r7
ARM GAS  C:\Users\vellu\AppData\Local\Temp\cc1nuW6c.s 			page 4


 127 0024 F1DB     		blt	.L8
  44:main.c        **** 	}
  45:main.c        **** 	return len;
  46:main.c        **** }
 128              		.loc 1 46 0
 129 0026 3846     		mov	r0, r7
 130 0028 F8BD     		pop	{r3, r4, r5, r6, r7, pc}
 131              		.cfi_endproc
 132              	.LFE64:
 133              		.size	_write, .-_write
 134 002a 00BF     		.section	.text._read,"ax",%progbits
 135              		.align	2
 136              		.global	_read
 137              		.thumb
 138              		.thumb_func
 139              		.type	_read, %function
 140              	_read:
 141              	.LFB65:
  47:main.c        **** 
  48:main.c        **** int _read (int file, char *ptr, int count)
  49:main.c        **** {
 142              		.loc 1 49 0
 143              		.cfi_startproc
 144              		@ args = 0, pretend = 0, frame = 0
 145              		@ frame_needed = 0, uses_anonymous_args = 0
 146              	.LVL12:
 147 0000 F8B5     		push	{r3, r4, r5, r6, r7, lr}
 148              		.cfi_def_cfa_offset 24
 149              		.cfi_offset 3, -24
 150              		.cfi_offset 4, -20
 151              		.cfi_offset 5, -16
 152              		.cfi_offset 6, -12
 153              		.cfi_offset 7, -8
 154              		.cfi_offset 14, -4
 155 0002 0F46     		mov	r7, r1
 156 0004 1446     		mov	r4, r2
 157              	.LVL13:
  50:main.c        ****     int chs = 0;
 158              		.loc 1 50 0
 159 0006 0026     		movs	r6, #0
  51:main.c        ****     char ch;
  52:main.c        ****  
  53:main.c        ****     (void)file; /* Parameter is not used, suppress unused argument warning */
  54:main.c        ****     while(count > 0) {
 160              		.loc 1 54 0
 161 0008 12E0     		b	.L12
 162              	.LVL14:
 163              	.L15:
  55:main.c        ****         ch = UART_1_GetChar();
 164              		.loc 1 55 0
 165 000a FFF7FEFF 		bl	UART_1_GetChar
 166              	.LVL15:
  56:main.c        ****         if(ch != 0) {
 167              		.loc 1 56 0
 168 000e 0546     		mov	r5, r0
 169 0010 70B1     		cbz	r0, .L12
  57:main.c        ****             UART_1_PutChar(ch);
ARM GAS  C:\Users\vellu\AppData\Local\Temp\cc1nuW6c.s 			page 5


 170              		.loc 1 57 0
 171 0012 FFF7FEFF 		bl	UART_1_PutChar
 172              	.LVL16:
  58:main.c        ****             chs++;
 173              		.loc 1 58 0
 174 0016 0136     		adds	r6, r6, #1
 175              	.LVL17:
  59:main.c        ****             if(ch == '\r') {
 176              		.loc 1 59 0
 177 0018 0D2D     		cmp	r5, #13
 178 001a 03D1     		bne	.L13
 179              	.LVL18:
  60:main.c        ****                 ch = '\n';
  61:main.c        ****                 UART_1_PutChar(ch);
 180              		.loc 1 61 0
 181 001c 0A20     		movs	r0, #10
 182 001e FFF7FEFF 		bl	UART_1_PutChar
 183              	.LVL19:
  60:main.c        ****                 ch = '\n';
 184              		.loc 1 60 0
 185 0022 0A25     		movs	r5, #10
 186              	.LVL20:
 187              	.L13:
  62:main.c        ****             }
  63:main.c        ****             *ptr++ = ch;
 188              		.loc 1 63 0
 189 0024 7B1C     		adds	r3, r7, #1
 190              	.LVL21:
 191 0026 3D70     		strb	r5, [r7]
  64:main.c        ****             count--;
 192              		.loc 1 64 0
 193 0028 013C     		subs	r4, r4, #1
 194              	.LVL22:
  65:main.c        ****             if(ch == '\n') break;
 195              		.loc 1 65 0
 196 002a 0A2D     		cmp	r5, #10
 197 002c 02D0     		beq	.L14
  63:main.c        ****             count--;
 198              		.loc 1 63 0
 199 002e 1F46     		mov	r7, r3
 200              	.LVL23:
 201              	.L12:
  54:main.c        ****         ch = UART_1_GetChar();
 202              		.loc 1 54 0
 203 0030 002C     		cmp	r4, #0
 204 0032 EADC     		bgt	.L15
 205              	.LVL24:
 206              	.L14:
  66:main.c        ****         }
  67:main.c        ****     }
  68:main.c        ****     return chs;
  69:main.c        **** }
 207              		.loc 1 69 0
 208 0034 3046     		mov	r0, r6
 209 0036 F8BD     		pop	{r3, r4, r5, r6, r7, pc}
 210              		.cfi_endproc
 211              	.LFE65:
ARM GAS  C:\Users\vellu\AppData\Local\Temp\cc1nuW6c.s 			page 6


 212              		.size	_read, .-_read
 213              		.section	.rodata.str1.4,"aMS",%progbits,1
 214              		.align	2
 215              	.LC0:
 216 0000 49207761 		.ascii	"I was born on %d.%d.%d\012\000"
 216      7320626F 
 216      726E206F 
 216      6E202564 
 216      2E25642E 
 217              	.LC1:
 218 0018 546F6461 		.ascii	"Today is %d.%d.%d\012\000"
 218      79206973 
 218      2025642E 
 218      25642E25 
 218      640A00
 219 002b 00       		.space	1
 220              	.LC2:
 221 002c 4920616D 		.ascii	"I am %d years old\012\000"
 221      20256420 
 221      79656172 
 221      73206F6C 
 221      640A00
 222 003f 00       		.text
 223              	.Letext0:
 224              		.file 2 "c:\\program files (x86)\\cypress\\psoc creator\\4.0\\psoc creator\\import\\gnu\\arm\\4.9.
 225              		.file 3 "c:\\program files (x86)\\cypress\\psoc creator\\4.0\\psoc creator\\import\\gnu\\arm\\4.9.
 226              		.file 4 "Generated_Source\\PSoC5/cytypes.h"
 227              		.file 5 "Generated_Source\\PSoC5/core_cm3.h"
 228              		.file 6 "Generated_Source\\PSoC5/UART_1.h"
 229              		.file 7 "c:\\program files (x86)\\cypress\\psoc creator\\4.0\\psoc creator\\import\\gnu\\arm\\4.9.