ARM GAS  C:\Users\vellu\AppData\Local\Temp\ccR6vfkA.s 			page 1


   1              		.syntax unified
   2              		.cpu cortex-m3
   3              		.fpu softvfp
   4              		.eabi_attribute 20, 1
   5              		.eabi_attribute 21, 1
   6              		.eabi_attribute 23, 3
   7              		.eabi_attribute 24, 1
   8              		.eabi_attribute 25, 1
   9              		.eabi_attribute 26, 1
  10              		.eabi_attribute 30, 1
  11              		.eabi_attribute 34, 1
  12              		.eabi_attribute 18, 4
  13              		.thumb
  14              		.file	"main.c"
  15              		.text
  16              	.Ltext0:
  17              		.cfi_sections	.debug_frame
  18              		.global	__aeabi_fdiv
  19              		.global	__aeabi_fcmple
  20              		.section	.text.calibrateWhite,"ax",%progbits
  21              		.align	2
  22              		.global	calibrateWhite
  23              		.thumb
  24              		.thumb_func
  25              		.type	calibrateWhite, %function
  26              	calibrateWhite:
  27              	.LFB64:
  28              		.file 1 "main.c"
   1:main.c        **** /* ========================================
   2:main.c        ****  *
   3:main.c        ****  * Copyright YOUR COMPANY, THE YEAR
   4:main.c        ****  * All Rights Reserved
   5:main.c        ****  * UNPUBLISHED, LICENSED SOFTWARE.
   6:main.c        ****  *
   7:main.c        ****  * CONFIDENTIAL AND PROPRIETARY INFORMATION
   8:main.c        ****  * WHICH IS THE PROPERTY OF your company.
   9:main.c        ****  *
  10:main.c        ****  * ========================================
  11:main.c        **** */
  12:main.c        **** #include "project.h"
  13:main.c        **** #include "stdio.h"
  14:main.c        **** #include <stdlib.h>
  15:main.c        **** #include <time.h>
  16:main.c        **** 
  17:main.c        **** float calibrateWhite(float white1, float white2);
  18:main.c        **** 
  19:main.c        **** int main(void)
  20:main.c        **** {
  21:main.c        ****     CyGlobalIntEnable; /* Enable global interrupts. */
  22:main.c        **** 
  23:main.c        ****     /* Place your initialization/startup code here (e.g. MyInst_Start()) */
  24:main.c        ****     UART_1_Start();
  25:main.c        ****     
  26:main.c        ****     float white1 = 3300;
  27:main.c        ****     float white2 = 8300;
  28:main.c        ****     float black = 23999;
  29:main.c        ****     float reading = 0;
ARM GAS  C:\Users\vellu\AppData\Local\Temp\ccR6vfkA.s 			page 2


  30:main.c        ****     
  31:main.c        ****     reading = calibrateWhite(white1, white2);
  32:main.c        ****     
  33:main.c        ****     printf("result: %f \n",reading);
  34:main.c        **** 
  35:main.c        ****     
  36:main.c        ****     return 0;
  37:main.c        ****    
  38:main.c        **** }
  39:main.c        **** float calibrateWhite(float white1, float white2)
  40:main.c        **** {
  29              		.loc 1 40 0
  30              		.cfi_startproc
  31              		@ args = 0, pretend = 0, frame = 0
  32              		@ frame_needed = 0, uses_anonymous_args = 0
  33              	.LVL0:
  34 0000 70B5     		push	{r4, r5, r6, lr}
  35              		.cfi_def_cfa_offset 16
  36              		.cfi_offset 4, -16
  37              		.cfi_offset 5, -12
  38              		.cfi_offset 6, -8
  39              		.cfi_offset 14, -4
  40 0002 0546     		mov	r5, r0
  41 0004 0C46     		mov	r4, r1
  42              	.LVL1:
  43              	.L2:
  41:main.c        **** 
  42:main.c        ****     float result1 = 0;
  43:main.c        **** 
  44:main.c        ****     do
  45:main.c        ****     {
  46:main.c        ****     
  47:main.c        **** 	result1 = white2 / white1;
  44              		.loc 1 47 0 discriminator 1
  45 0006 2046     		mov	r0, r4
  46 0008 2946     		mov	r1, r5
  47 000a FFF7FEFF 		bl	__aeabi_fdiv
  48              	.LVL2:
  49 000e 0646     		mov	r6, r0
  50              	.LVL3:
  48:main.c        ****     }
  49:main.c        ****     while(white1 <= white2 && white2 >= white1);
  51              		.loc 1 49 0 discriminator 1
  52 0010 2846     		mov	r0, r5
  53              	.LVL4:
  54 0012 2146     		mov	r1, r4
  55 0014 FFF7FEFF 		bl	__aeabi_fcmple
  56              	.LVL5:
  57 0018 0028     		cmp	r0, #0
  58 001a F4D1     		bne	.L2
  50:main.c        ****     
  51:main.c        ****     return result1;
  52:main.c        **** }
  59              		.loc 1 52 0
  60 001c 3046     		mov	r0, r6
  61 001e 70BD     		pop	{r4, r5, r6, pc}
  62              		.cfi_endproc
ARM GAS  C:\Users\vellu\AppData\Local\Temp\ccR6vfkA.s 			page 3


  63              	.LFE64:
  64              		.size	calibrateWhite, .-calibrateWhite
  65              		.global	__aeabi_f2d
  66              		.section	.text.main,"ax",%progbits
  67              		.align	2
  68              		.global	main
  69              		.thumb
  70              		.thumb_func
  71              		.type	main, %function
  72              	main:
  73              	.LFB63:
  20:main.c        ****     CyGlobalIntEnable; /* Enable global interrupts. */
  74              		.loc 1 20 0
  75              		.cfi_startproc
  76              		@ args = 0, pretend = 0, frame = 0
  77              		@ frame_needed = 0, uses_anonymous_args = 0
  78 0000 08B5     		push	{r3, lr}
  79              		.cfi_def_cfa_offset 8
  80              		.cfi_offset 3, -8
  81              		.cfi_offset 14, -4
  21:main.c        **** 
  82              		.loc 1 21 0
  83              	@ 21 "main.c" 1
  84 0002 62B6     		CPSIE   i
  85              	@ 0 "" 2
  24:main.c        ****     
  86              		.loc 1 24 0
  87              		.thumb
  88 0004 FFF7FEFF 		bl	UART_1_Start
  89              	.LVL6:
  31:main.c        ****     
  90              		.loc 1 31 0
  91 0008 0648     		ldr	r0, .L6
  92 000a 0749     		ldr	r1, .L6+4
  93 000c FFF7FEFF 		bl	calibrateWhite
  94              	.LVL7:
  33:main.c        **** 
  95              		.loc 1 33 0
  96 0010 FFF7FEFF 		bl	__aeabi_f2d
  97              	.LVL8:
  98 0014 0246     		mov	r2, r0
  99 0016 0B46     		mov	r3, r1
 100 0018 0448     		ldr	r0, .L6+8
 101 001a FFF7FEFF 		bl	printf
 102              	.LVL9:
  38:main.c        **** float calibrateWhite(float white1, float white2)
 103              		.loc 1 38 0
 104 001e 0020     		movs	r0, #0
 105 0020 08BD     		pop	{r3, pc}
 106              	.L7:
 107 0022 00BF     		.align	2
 108              	.L6:
 109 0024 00404E45 		.word	1162756096
 110 0028 00B00146 		.word	1174515712
 111 002c 00000000 		.word	.LC0
 112              		.cfi_endproc
 113              	.LFE63:
ARM GAS  C:\Users\vellu\AppData\Local\Temp\ccR6vfkA.s 			page 4


 114              		.size	main, .-main
 115              		.section	.text._write,"ax",%progbits
 116              		.align	2
 117              		.global	_write
 118              		.thumb
 119              		.thumb_func
 120              		.type	_write, %function
 121              	_write:
 122              	.LFB65:
  53:main.c        **** 
  54:main.c        **** int _write(int file, char *ptr, int len)
  55:main.c        **** {
 123              		.loc 1 55 0
 124              		.cfi_startproc
 125              		@ args = 0, pretend = 0, frame = 0
 126              		@ frame_needed = 0, uses_anonymous_args = 0
 127              	.LVL10:
 128 0000 F8B5     		push	{r3, r4, r5, r6, r7, lr}
 129              		.cfi_def_cfa_offset 24
 130              		.cfi_offset 3, -24
 131              		.cfi_offset 4, -20
 132              		.cfi_offset 5, -16
 133              		.cfi_offset 6, -12
 134              		.cfi_offset 7, -8
 135              		.cfi_offset 14, -4
 136 0002 0C46     		mov	r4, r1
 137 0004 1746     		mov	r7, r2
 138              	.LVL11:
  56:main.c        ****     (void)file; /* Parameter is not used, suppress unused argument warning */
  57:main.c        **** 	int n;
  58:main.c        **** 	for(n = 0; n < len; n++) {
 139              		.loc 1 58 0
 140 0006 0025     		movs	r5, #0
 141 0008 0BE0     		b	.L9
 142              	.LVL12:
 143              	.L11:
  59:main.c        ****         if(*ptr == '\n') UART_1_PutChar('\r');
 144              		.loc 1 59 0
 145 000a 2378     		ldrb	r3, [r4]	@ zero_extendqisi2
 146 000c 0A2B     		cmp	r3, #10
 147 000e 02D1     		bne	.L10
 148              		.loc 1 59 0 is_stmt 0 discriminator 1
 149 0010 0D20     		movs	r0, #13
 150 0012 FFF7FEFF 		bl	UART_1_PutChar
 151              	.LVL13:
 152              	.L10:
  60:main.c        **** 		UART_1_PutChar(*ptr++);
 153              		.loc 1 60 0 is_stmt 1 discriminator 2
 154 0016 661C     		adds	r6, r4, #1
 155              	.LVL14:
 156 0018 2078     		ldrb	r0, [r4]	@ zero_extendqisi2
 157 001a FFF7FEFF 		bl	UART_1_PutChar
 158              	.LVL15:
  58:main.c        ****         if(*ptr == '\n') UART_1_PutChar('\r');
 159              		.loc 1 58 0 discriminator 2
 160 001e 0135     		adds	r5, r5, #1
 161              	.LVL16:
ARM GAS  C:\Users\vellu\AppData\Local\Temp\ccR6vfkA.s 			page 5


 162              		.loc 1 60 0 discriminator 2
 163 0020 3446     		mov	r4, r6
 164              	.LVL17:
 165              	.L9:
  58:main.c        ****         if(*ptr == '\n') UART_1_PutChar('\r');
 166              		.loc 1 58 0 discriminator 1
 167 0022 BD42     		cmp	r5, r7
 168 0024 F1DB     		blt	.L11
  61:main.c        **** 	}
  62:main.c        **** 	return len;
  63:main.c        **** }
 169              		.loc 1 63 0
 170 0026 3846     		mov	r0, r7
 171 0028 F8BD     		pop	{r3, r4, r5, r6, r7, pc}
 172              		.cfi_endproc
 173              	.LFE65:
 174              		.size	_write, .-_write
 175 002a 00BF     		.section	.text._read,"ax",%progbits
 176              		.align	2
 177              		.global	_read
 178              		.thumb
 179              		.thumb_func
 180              		.type	_read, %function
 181              	_read:
 182              	.LFB66:
  64:main.c        **** 
  65:main.c        **** int _read (int file, char *ptr, int count)
  66:main.c        **** {
 183              		.loc 1 66 0
 184              		.cfi_startproc
 185              		@ args = 0, pretend = 0, frame = 0
 186              		@ frame_needed = 0, uses_anonymous_args = 0
 187              	.LVL18:
 188 0000 F8B5     		push	{r3, r4, r5, r6, r7, lr}
 189              		.cfi_def_cfa_offset 24
 190              		.cfi_offset 3, -24
 191              		.cfi_offset 4, -20
 192              		.cfi_offset 5, -16
 193              		.cfi_offset 6, -12
 194              		.cfi_offset 7, -8
 195              		.cfi_offset 14, -4
 196 0002 0F46     		mov	r7, r1
 197 0004 1446     		mov	r4, r2
 198              	.LVL19:
  67:main.c        ****     int chs = 0;
 199              		.loc 1 67 0
 200 0006 0026     		movs	r6, #0
  68:main.c        ****     char ch;
  69:main.c        ****  
  70:main.c        ****     (void)file; /* Parameter is not used, suppress unused argument warning */
  71:main.c        ****     while(count > 0) {
 201              		.loc 1 71 0
 202 0008 12E0     		b	.L15
 203              	.LVL20:
 204              	.L18:
  72:main.c        ****         ch = UART_1_GetChar();
 205              		.loc 1 72 0
ARM GAS  C:\Users\vellu\AppData\Local\Temp\ccR6vfkA.s 			page 6


 206 000a FFF7FEFF 		bl	UART_1_GetChar
 207              	.LVL21:
  73:main.c        ****         if(ch != 0) {
 208              		.loc 1 73 0
 209 000e 0546     		mov	r5, r0
 210 0010 70B1     		cbz	r0, .L15
  74:main.c        ****             UART_1_PutChar(ch);
 211              		.loc 1 74 0
 212 0012 FFF7FEFF 		bl	UART_1_PutChar
 213              	.LVL22:
  75:main.c        ****             chs++;
 214              		.loc 1 75 0
 215 0016 0136     		adds	r6, r6, #1
 216              	.LVL23:
  76:main.c        ****             if(ch == '\r') {
 217              		.loc 1 76 0
 218 0018 0D2D     		cmp	r5, #13
 219 001a 03D1     		bne	.L16
 220              	.LVL24:
  77:main.c        ****                 ch = '\n';
  78:main.c        ****                 UART_1_PutChar(ch);
 221              		.loc 1 78 0
 222 001c 0A20     		movs	r0, #10
 223 001e FFF7FEFF 		bl	UART_1_PutChar
 224              	.LVL25:
  77:main.c        ****                 ch = '\n';
 225              		.loc 1 77 0
 226 0022 0A25     		movs	r5, #10
 227              	.LVL26:
 228              	.L16:
  79:main.c        ****             }
  80:main.c        ****             *ptr++ = ch;
 229              		.loc 1 80 0
 230 0024 7B1C     		adds	r3, r7, #1
 231              	.LVL27:
 232 0026 3D70     		strb	r5, [r7]
  81:main.c        ****             count--;
 233              		.loc 1 81 0
 234 0028 013C     		subs	r4, r4, #1
 235              	.LVL28:
  82:main.c        ****             if(ch == '\n') break;
 236              		.loc 1 82 0
 237 002a 0A2D     		cmp	r5, #10
 238 002c 02D0     		beq	.L17
  80:main.c        ****             count--;
 239              		.loc 1 80 0
 240 002e 1F46     		mov	r7, r3
 241              	.LVL29:
 242              	.L15:
  71:main.c        ****         ch = UART_1_GetChar();
 243              		.loc 1 71 0
 244 0030 002C     		cmp	r4, #0
 245 0032 EADC     		bgt	.L18
 246              	.LVL30:
 247              	.L17:
  83:main.c        ****         }
  84:main.c        ****     }
ARM GAS  C:\Users\vellu\AppData\Local\Temp\ccR6vfkA.s 			page 7


  85:main.c        ****     return chs;
  86:main.c        **** }
 248              		.loc 1 86 0
 249 0034 3046     		mov	r0, r6
 250 0036 F8BD     		pop	{r3, r4, r5, r6, r7, pc}
 251              		.cfi_endproc
 252              	.LFE66:
 253              		.size	_read, .-_read
 254              		.section	.rodata.str1.4,"aMS",%progbits,1
 255              		.align	2
 256              	.LC0:
 257 0000 72657375 		.ascii	"result: %f \012\000"
 257      6C743A20 
 257      2566200A 
 257      00
 258 000d 000000   		.text
 259              	.Letext0:
 260              		.file 2 "c:\\program files (x86)\\cypress\\psoc creator\\4.0\\psoc creator\\import\\gnu\\arm\\4.9.
 261              		.file 3 "c:\\program files (x86)\\cypress\\psoc creator\\4.0\\psoc creator\\import\\gnu\\arm\\4.9.
 262              		.file 4 "Generated_Source\\PSoC5/cytypes.h"
 263              		.file 5 "Generated_Source\\PSoC5/core_cm3.h"
 264              		.file 6 "Generated_Source\\PSoC5/UART_1.h"
 265              		.file 7 "c:\\program files (x86)\\cypress\\psoc creator\\4.0\\psoc creator\\import\\gnu\\arm\\4.9.