ARM GAS  C:\Users\vellu\AppData\Local\Temp\cc6qa4FZ.s 			page 1


   1              		.syntax unified
   2              		.cpu cortex-m3
   3              		.fpu softvfp
   4              		.eabi_attribute 20, 1
   5              		.eabi_attribute 21, 1
   6              		.eabi_attribute 23, 3
   7              		.eabi_attribute 24, 1
   8              		.eabi_attribute 25, 1
   9              		.eabi_attribute 26, 1
  10              		.eabi_attribute 30, 1
  11              		.eabi_attribute 34, 1
  12              		.eabi_attribute 18, 4
  13              		.thumb
  14              		.file	"main.c"
  15              		.text
  16              	.Ltext0:
  17              		.cfi_sections	.debug_frame
  18              		.section	.text.main,"ax",%progbits
  19              		.align	2
  20              		.global	main
  21              		.thumb
  22              		.thumb_func
  23              		.type	main, %function
  24              	main:
  25              	.LFB63:
  26              		.file 1 "main.c"
   1:main.c        **** /* ========================================
   2:main.c        ****  *
   3:main.c        ****  * Copyright YOUR COMPANY, THE YEAR
   4:main.c        ****  * All Rights Reserved
   5:main.c        ****  * UNPUBLISHED, LICENSED SOFTWARE.
   6:main.c        ****  *
   7:main.c        ****  * CONFIDENTIAL AND PROPRIETARY INFORMATION
   8:main.c        ****  * WHICH IS THE PROPERTY OF your company.
   9:main.c        ****  *
  10:main.c        ****  * ========================================
  11:main.c        **** */
  12:main.c        **** #include "project.h"
  13:main.c        **** #include "stdio.h"
  14:main.c        **** #include "string.h"
  15:main.c        **** #include <stdlib.h>
  16:main.c        **** #include <time.h>
  17:main.c        **** 
  18:main.c        **** #define NAME_SIZE 50
  19:main.c        **** 
  20:main.c        **** int main(void)
  21:main.c        **** {
  27              		.loc 1 21 0
  28              		.cfi_startproc
  29              		@ args = 0, pretend = 0, frame = 160
  30              		@ frame_needed = 0, uses_anonymous_args = 0
  31 0000 30B5     		push	{r4, r5, lr}
  32              		.cfi_def_cfa_offset 12
  33              		.cfi_offset 4, -12
  34              		.cfi_offset 5, -8
  35              		.cfi_offset 14, -4
  36 0002 A9B0     		sub	sp, sp, #164
ARM GAS  C:\Users\vellu\AppData\Local\Temp\cc6qa4FZ.s 			page 2


  37              		.cfi_def_cfa_offset 176
  22:main.c        ****     CyGlobalIntEnable; /* Enable global interrupts. */
  38              		.loc 1 22 0
  39              	@ 22 "main.c" 1
  40 0004 62B6     		CPSIE   i
  41              	@ 0 "" 2
  23:main.c        **** 
  24:main.c        ****     /* Place your initialization/startup code here (e.g. MyInst_Start()) */
  25:main.c        ****     UART_1_Start();
  42              		.loc 1 25 0
  43              		.thumb
  44 0006 FFF7FEFF 		bl	UART_1_Start
  45              	.LVL0:
  26:main.c        ****     
  27:main.c        ****     char fName[NAME_SIZE] = {""};
  46              		.loc 1 27 0
  47 000a 0023     		movs	r3, #0
  48 000c 1B93     		str	r3, [sp, #108]
  49 000e 1C93     		str	r3, [sp, #112]
  50 0010 1D93     		str	r3, [sp, #116]
  51 0012 1E93     		str	r3, [sp, #120]
  52 0014 1F93     		str	r3, [sp, #124]
  53 0016 2093     		str	r3, [sp, #128]
  54 0018 2193     		str	r3, [sp, #132]
  55 001a 2293     		str	r3, [sp, #136]
  56 001c 2393     		str	r3, [sp, #140]
  57 001e 2493     		str	r3, [sp, #144]
  58 0020 2593     		str	r3, [sp, #148]
  59 0022 2693     		str	r3, [sp, #152]
  60 0024 ADF89C30 		strh	r3, [sp, #156]	@ movhi
  28:main.c        ****     char lName[NAME_SIZE] = {""};
  61              		.loc 1 28 0
  62 0028 0E93     		str	r3, [sp, #56]
  63 002a 0F93     		str	r3, [sp, #60]
  64 002c 1093     		str	r3, [sp, #64]
  65 002e 1193     		str	r3, [sp, #68]
  66 0030 1293     		str	r3, [sp, #72]
  67 0032 1393     		str	r3, [sp, #76]
  68 0034 1493     		str	r3, [sp, #80]
  69 0036 1593     		str	r3, [sp, #84]
  70 0038 1693     		str	r3, [sp, #88]
  71 003a 1793     		str	r3, [sp, #92]
  72 003c 1893     		str	r3, [sp, #96]
  73 003e 1993     		str	r3, [sp, #100]
  74 0040 ADF86830 		strh	r3, [sp, #104]	@ movhi
  29:main.c        ****     char wName[NAME_SIZE] = {""};
  75              		.loc 1 29 0
  76 0044 0193     		str	r3, [sp, #4]
  77 0046 0293     		str	r3, [sp, #8]
  78 0048 0393     		str	r3, [sp, #12]
  79 004a 0493     		str	r3, [sp, #16]
  80 004c 0593     		str	r3, [sp, #20]
  81 004e 0693     		str	r3, [sp, #24]
  82 0050 0793     		str	r3, [sp, #28]
  83 0052 0893     		str	r3, [sp, #32]
  84 0054 0993     		str	r3, [sp, #36]
  85 0056 0A93     		str	r3, [sp, #40]
ARM GAS  C:\Users\vellu\AppData\Local\Temp\cc6qa4FZ.s 			page 3


  86 0058 0B93     		str	r3, [sp, #44]
  87 005a 0C93     		str	r3, [sp, #48]
  88 005c ADF83430 		strh	r3, [sp, #52]	@ movhi
  30:main.c        ****     int length, length2, lengthMax, lengthTotal;
  31:main.c        ****     
  32:main.c        ****     printf("\nEnter your first name: ");
  89              		.loc 1 32 0
  90 0060 1E48     		ldr	r0, .L5
  91 0062 FFF7FEFF 		bl	printf
  92              	.LVL1:
  33:main.c        ****     
  34:main.c        ****     scanf("%s",fName);
  93              		.loc 1 34 0
  94 0066 1E4C     		ldr	r4, .L5+4
  95 0068 2046     		mov	r0, r4
  96 006a 1BA9     		add	r1, sp, #108
  97 006c FFF7FEFF 		bl	scanf
  98              	.LVL2:
  35:main.c        ****     length = strlen(fName);
  99              		.loc 1 35 0
 100 0070 1BA8     		add	r0, sp, #108
 101 0072 FFF7FEFF 		bl	strlen
 102              	.LVL3:
 103 0076 0546     		mov	r5, r0
 104              	.LVL4:
  36:main.c        ****     
  37:main.c        ****     printf("Enter your last name: ");
 105              		.loc 1 37 0
 106 0078 1A48     		ldr	r0, .L5+8
 107              	.LVL5:
 108 007a FFF7FEFF 		bl	printf
 109              	.LVL6:
  38:main.c        ****     
  39:main.c        ****     scanf("%s",lName);
 110              		.loc 1 39 0
 111 007e 2046     		mov	r0, r4
 112 0080 0EA9     		add	r1, sp, #56
 113 0082 FFF7FEFF 		bl	scanf
 114              	.LVL7:
  40:main.c        ****     length2 = strlen(lName);
 115              		.loc 1 40 0
 116 0086 0EA8     		add	r0, sp, #56
 117 0088 FFF7FEFF 		bl	strlen
 118              	.LVL8:
 119 008c 0246     		mov	r2, r0
 120              	.LVL9:
  41:main.c        ****     lengthTotal= length+length2;
 121              		.loc 1 41 0
 122 008e 2B18     		adds	r3, r5, r0
 123              	.LVL10:
  42:main.c        ****     lengthMax = NAME_SIZE-1;
  43:main.c        ****     if (lengthTotal <= lengthMax)
 124              		.loc 1 43 0
 125 0090 312B     		cmp	r3, #49
 126 0092 0FDC     		bgt	.L2
  44:main.c        ****     {
  45:main.c        ****         strcpy(wName,lName);
ARM GAS  C:\Users\vellu\AppData\Local\Temp\cc6qa4FZ.s 			page 4


 127              		.loc 1 45 0
 128 0094 01AC     		add	r4, sp, #4
 129 0096 2046     		mov	r0, r4
 130              	.LVL11:
 131 0098 0EA9     		add	r1, sp, #56
 132 009a FFF7FEFF 		bl	strcpy
 133              	.LVL12:
  46:main.c        ****         strcat(wName,(" "));
 134              		.loc 1 46 0
 135 009e 2046     		mov	r0, r4
 136 00a0 FFF7FEFF 		bl	strlen
 137              	.LVL13:
 138 00a4 104B     		ldr	r3, .L5+12
 139 00a6 1B88     		ldrh	r3, [r3]	@ unaligned
 140 00a8 2352     		strh	r3, [r4, r0]	@ unaligned
  47:main.c        ****         strcat(wName,fName);
 141              		.loc 1 47 0
 142 00aa 2046     		mov	r0, r4
 143 00ac 1BA9     		add	r1, sp, #108
 144 00ae FFF7FEFF 		bl	strcat
 145              	.LVL14:
 146 00b2 04E0     		b	.L3
 147              	.LVL15:
 148              	.L2:
  48:main.c        ****     }
  49:main.c        ****     else {
  50:main.c        ****         printf("Length of names %d and %d is too long to copy %d.",length,length2,lengthMax);
 149              		.loc 1 50 0
 150 00b4 0D48     		ldr	r0, .L5+16
 151              	.LVL16:
 152 00b6 2946     		mov	r1, r5
 153 00b8 3123     		movs	r3, #49
 154              	.LVL17:
 155 00ba FFF7FEFF 		bl	printf
 156              	.LVL18:
 157              	.L3:
  51:main.c        ****     }
  52:main.c        ****     printf("Hello, %s\n",wName);
 158              		.loc 1 52 0
 159 00be 0C48     		ldr	r0, .L5+20
 160 00c0 01A9     		add	r1, sp, #4
 161 00c2 FFF7FEFF 		bl	printf
 162              	.LVL19:
  53:main.c        ****     printf("Length of your name = %d\n",strlen(wName));
 163              		.loc 1 53 0
 164 00c6 01A8     		add	r0, sp, #4
 165 00c8 FFF7FEFF 		bl	strlen
 166              	.LVL20:
 167 00cc 0146     		mov	r1, r0
 168 00ce 0948     		ldr	r0, .L5+24
 169 00d0 FFF7FEFF 		bl	printf
 170              	.LVL21:
  54:main.c        ****     
  55:main.c        ****     
  56:main.c        ****     
  57:main.c        ****     return 0;
  58:main.c        **** 
ARM GAS  C:\Users\vellu\AppData\Local\Temp\cc6qa4FZ.s 			page 5


  59:main.c        **** }
 171              		.loc 1 59 0
 172 00d4 0020     		movs	r0, #0
 173 00d6 29B0     		add	sp, sp, #164
 174              		.cfi_def_cfa_offset 12
 175              		@ sp needed
 176 00d8 30BD     		pop	{r4, r5, pc}
 177              	.LVL22:
 178              	.L6:
 179 00da 00BF     		.align	2
 180              	.L5:
 181 00dc 00000000 		.word	.LC0
 182 00e0 1C000000 		.word	.LC1
 183 00e4 20000000 		.word	.LC2
 184 00e8 38000000 		.word	.LC3
 185 00ec 3C000000 		.word	.LC4
 186 00f0 70000000 		.word	.LC5
 187 00f4 7C000000 		.word	.LC6
 188              		.cfi_endproc
 189              	.LFE63:
 190              		.size	main, .-main
 191              		.section	.text._write,"ax",%progbits
 192              		.align	2
 193              		.global	_write
 194              		.thumb
 195              		.thumb_func
 196              		.type	_write, %function
 197              	_write:
 198              	.LFB64:
  60:main.c        **** 
  61:main.c        **** int _write(int file, char *ptr, int len)
  62:main.c        **** {
 199              		.loc 1 62 0
 200              		.cfi_startproc
 201              		@ args = 0, pretend = 0, frame = 0
 202              		@ frame_needed = 0, uses_anonymous_args = 0
 203              	.LVL23:
 204 0000 F8B5     		push	{r3, r4, r5, r6, r7, lr}
 205              		.cfi_def_cfa_offset 24
 206              		.cfi_offset 3, -24
 207              		.cfi_offset 4, -20
 208              		.cfi_offset 5, -16
 209              		.cfi_offset 6, -12
 210              		.cfi_offset 7, -8
 211              		.cfi_offset 14, -4
 212 0002 0C46     		mov	r4, r1
 213 0004 1746     		mov	r7, r2
 214              	.LVL24:
  63:main.c        ****     (void)file; /* Parameter is not used, suppress unused argument warning */
  64:main.c        **** 	int n;
  65:main.c        **** 	for(n = 0; n < len; n++) {
 215              		.loc 1 65 0
 216 0006 0025     		movs	r5, #0
 217 0008 0BE0     		b	.L8
 218              	.LVL25:
 219              	.L10:
  66:main.c        ****         if(*ptr == '\n') UART_1_PutChar('\r');
ARM GAS  C:\Users\vellu\AppData\Local\Temp\cc6qa4FZ.s 			page 6


 220              		.loc 1 66 0
 221 000a 2378     		ldrb	r3, [r4]	@ zero_extendqisi2
 222 000c 0A2B     		cmp	r3, #10
 223 000e 02D1     		bne	.L9
 224              		.loc 1 66 0 is_stmt 0 discriminator 1
 225 0010 0D20     		movs	r0, #13
 226 0012 FFF7FEFF 		bl	UART_1_PutChar
 227              	.LVL26:
 228              	.L9:
  67:main.c        **** 		UART_1_PutChar(*ptr++);
 229              		.loc 1 67 0 is_stmt 1 discriminator 2
 230 0016 661C     		adds	r6, r4, #1
 231              	.LVL27:
 232 0018 2078     		ldrb	r0, [r4]	@ zero_extendqisi2
 233 001a FFF7FEFF 		bl	UART_1_PutChar
 234              	.LVL28:
  65:main.c        ****         if(*ptr == '\n') UART_1_PutChar('\r');
 235              		.loc 1 65 0 discriminator 2
 236 001e 0135     		adds	r5, r5, #1
 237              	.LVL29:
 238              		.loc 1 67 0 discriminator 2
 239 0020 3446     		mov	r4, r6
 240              	.LVL30:
 241              	.L8:
  65:main.c        ****         if(*ptr == '\n') UART_1_PutChar('\r');
 242              		.loc 1 65 0 discriminator 1
 243 0022 BD42     		cmp	r5, r7
 244 0024 F1DB     		blt	.L10
  68:main.c        **** 	}
  69:main.c        **** 	return len;
  70:main.c        **** }
 245              		.loc 1 70 0
 246 0026 3846     		mov	r0, r7
 247 0028 F8BD     		pop	{r3, r4, r5, r6, r7, pc}
 248              		.cfi_endproc
 249              	.LFE64:
 250              		.size	_write, .-_write
 251 002a 00BF     		.section	.text._read,"ax",%progbits
 252              		.align	2
 253              		.global	_read
 254              		.thumb
 255              		.thumb_func
 256              		.type	_read, %function
 257              	_read:
 258              	.LFB65:
  71:main.c        **** 
  72:main.c        **** int _read (int file, char *ptr, int count)
  73:main.c        **** {
 259              		.loc 1 73 0
 260              		.cfi_startproc
 261              		@ args = 0, pretend = 0, frame = 0
 262              		@ frame_needed = 0, uses_anonymous_args = 0
 263              	.LVL31:
 264 0000 F8B5     		push	{r3, r4, r5, r6, r7, lr}
 265              		.cfi_def_cfa_offset 24
 266              		.cfi_offset 3, -24
 267              		.cfi_offset 4, -20
ARM GAS  C:\Users\vellu\AppData\Local\Temp\cc6qa4FZ.s 			page 7


 268              		.cfi_offset 5, -16
 269              		.cfi_offset 6, -12
 270              		.cfi_offset 7, -8
 271              		.cfi_offset 14, -4
 272 0002 0F46     		mov	r7, r1
 273 0004 1446     		mov	r4, r2
 274              	.LVL32:
  74:main.c        ****     int chs = 0;
 275              		.loc 1 74 0
 276 0006 0026     		movs	r6, #0
  75:main.c        ****     char ch;
  76:main.c        ****  
  77:main.c        ****     (void)file; /* Parameter is not used, suppress unused argument warning */
  78:main.c        ****     while(count > 0) {
 277              		.loc 1 78 0
 278 0008 12E0     		b	.L14
 279              	.LVL33:
 280              	.L17:
  79:main.c        ****         ch = UART_1_GetChar();
 281              		.loc 1 79 0
 282 000a FFF7FEFF 		bl	UART_1_GetChar
 283              	.LVL34:
  80:main.c        ****         if(ch != 0) {
 284              		.loc 1 80 0
 285 000e 0546     		mov	r5, r0
 286 0010 70B1     		cbz	r0, .L14
  81:main.c        ****             UART_1_PutChar(ch);
 287              		.loc 1 81 0
 288 0012 FFF7FEFF 		bl	UART_1_PutChar
 289              	.LVL35:
  82:main.c        ****             chs++;
 290              		.loc 1 82 0
 291 0016 0136     		adds	r6, r6, #1
 292              	.LVL36:
  83:main.c        ****             if(ch == '\r') {
 293              		.loc 1 83 0
 294 0018 0D2D     		cmp	r5, #13
 295 001a 03D1     		bne	.L15
 296              	.LVL37:
  84:main.c        ****                 ch = '\n';
  85:main.c        ****                 UART_1_PutChar(ch);
 297              		.loc 1 85 0
 298 001c 0A20     		movs	r0, #10
 299 001e FFF7FEFF 		bl	UART_1_PutChar
 300              	.LVL38:
  84:main.c        ****                 ch = '\n';
 301              		.loc 1 84 0
 302 0022 0A25     		movs	r5, #10
 303              	.LVL39:
 304              	.L15:
  86:main.c        ****             }
  87:main.c        ****             *ptr++ = ch;
 305              		.loc 1 87 0
 306 0024 7B1C     		adds	r3, r7, #1
 307              	.LVL40:
 308 0026 3D70     		strb	r5, [r7]
  88:main.c        ****             count--;
ARM GAS  C:\Users\vellu\AppData\Local\Temp\cc6qa4FZ.s 			page 8


 309              		.loc 1 88 0
 310 0028 013C     		subs	r4, r4, #1
 311              	.LVL41:
  89:main.c        ****             if(ch == '\n') break;
 312              		.loc 1 89 0
 313 002a 0A2D     		cmp	r5, #10
 314 002c 02D0     		beq	.L16
  87:main.c        ****             count--;
 315              		.loc 1 87 0
 316 002e 1F46     		mov	r7, r3
 317              	.LVL42:
 318              	.L14:
  78:main.c        ****         ch = UART_1_GetChar();
 319              		.loc 1 78 0
 320 0030 002C     		cmp	r4, #0
 321 0032 EADC     		bgt	.L17
 322              	.LVL43:
 323              	.L16:
  90:main.c        ****         }
  91:main.c        ****     }
  92:main.c        ****     return chs;
  93:main.c        **** }
 324              		.loc 1 93 0
 325 0034 3046     		mov	r0, r6
 326 0036 F8BD     		pop	{r3, r4, r5, r6, r7, pc}
 327              		.cfi_endproc
 328              	.LFE65:
 329              		.size	_read, .-_read
 330              		.section	.rodata.str1.4,"aMS",%progbits,1
 331              		.align	2
 332              	.LC0:
 333 0000 0A456E74 		.ascii	"\012Enter your first name: \000"
 333      65722079 
 333      6F757220 
 333      66697273 
 333      74206E61 
 334 0019 000000   		.space	3
 335              	.LC1:
 336 001c 257300   		.ascii	"%s\000"
 337 001f 00       		.space	1
 338              	.LC2:
 339 0020 456E7465 		.ascii	"Enter your last name: \000"
 339      7220796F 
 339      7572206C 
 339      61737420 
 339      6E616D65 
 340 0037 00       		.space	1
 341              	.LC3:
 342 0038 2000     		.ascii	" \000"
 343 003a 0000     		.space	2
 344              	.LC4:
 345 003c 4C656E67 		.ascii	"Length of names %d and %d is too long to copy %d.\000"
 345      7468206F 
 345      66206E61 
 345      6D657320 
 345      25642061 
 346 006e 0000     		.space	2
ARM GAS  C:\Users\vellu\AppData\Local\Temp\cc6qa4FZ.s 			page 9


 347              	.LC5:
 348 0070 48656C6C 		.ascii	"Hello, %s\012\000"
 348      6F2C2025 
 348      730A00
 349 007b 00       		.space	1
 350              	.LC6:
 351 007c 4C656E67 		.ascii	"Length of your name = %d\012\000"
 351      7468206F 
 351      6620796F 
 351      7572206E 
 351      616D6520 
 352 0096 0000     		.text
 353              	.Letext0:
 354              		.file 2 "c:\\program files (x86)\\cypress\\psoc creator\\4.0\\psoc creator\\import\\gnu\\arm\\4.9.
 355              		.file 3 "c:\\program files (x86)\\cypress\\psoc creator\\4.0\\psoc creator\\import\\gnu\\arm\\4.9.
 356              		.file 4 "Generated_Source\\PSoC5/cytypes.h"
 357              		.file 5 "c:\\program files (x86)\\cypress\\psoc creator\\4.0\\psoc creator\\import\\gnu\\arm\\4.9.
 358              		.file 6 "c:\\program files (x86)\\cypress\\psoc creator\\4.0\\psoc creator\\import\\gnu\\arm\\4.9.
 359              		.file 7 "c:\\program files (x86)\\cypress\\psoc creator\\4.0\\psoc creator\\import\\gnu\\arm\\4.9.
 360              		.file 8 "Generated_Source\\PSoC5/core_cm3.h"
 361              		.file 9 "Generated_Source\\PSoC5/UART_1.h"
 362              		.file 10 "<built-in>"