ARM GAS  C:\Users\vellu\AppData\Local\Temp\cca9jQgb.s 			page 1


   1              		.syntax unified
   2              		.cpu cortex-m3
   3              		.fpu softvfp
   4              		.eabi_attribute 20, 1
   5              		.eabi_attribute 21, 1
   6              		.eabi_attribute 23, 3
   7              		.eabi_attribute 24, 1
   8              		.eabi_attribute 25, 1
   9              		.eabi_attribute 26, 1
  10              		.eabi_attribute 30, 1
  11              		.eabi_attribute 34, 1
  12              		.eabi_attribute 18, 4
  13              		.thumb
  14              		.file	"main.c"
  15              		.text
  16              	.Ltext0:
  17              		.cfi_sections	.debug_frame
  18              		.section	.text.main,"ax",%progbits
  19              		.align	2
  20              		.global	main
  21              		.thumb
  22              		.thumb_func
  23              		.type	main, %function
  24              	main:
  25              	.LFB63:
  26              		.file 1 "main.c"
   1:main.c        **** /* ========================================
   2:main.c        ****  *
   3:main.c        ****  * Copyright YOUR COMPANY, THE YEAR
   4:main.c        ****  * All Rights Reserved
   5:main.c        ****  * UNPUBLISHED, LICENSED SOFTWARE.
   6:main.c        ****  *
   7:main.c        ****  * CONFIDENTIAL AND PROPRIETARY INFORMATION
   8:main.c        ****  * WHICH IS THE PROPERTY OF your company.
   9:main.c        ****  *
  10:main.c        ****  * ========================================
  11:main.c        **** */
  12:main.c        **** #include "project.h"
  13:main.c        **** #include "stdio.h"
  14:main.c        **** 
  15:main.c        **** int main(void)
  16:main.c        **** {
  27              		.loc 1 16 0
  28              		.cfi_startproc
  29              		@ args = 0, pretend = 0, frame = 48
  30              		@ frame_needed = 0, uses_anonymous_args = 0
  31 0000 10B5     		push	{r4, lr}
  32              		.cfi_def_cfa_offset 8
  33              		.cfi_offset 4, -8
  34              		.cfi_offset 14, -4
  35 0002 8CB0     		sub	sp, sp, #48
  36              		.cfi_def_cfa_offset 56
  17:main.c        ****     CyGlobalIntEnable; /* Enable global interrupts. */
  37              		.loc 1 17 0
  38              	@ 17 "main.c" 1
  39 0004 62B6     		CPSIE   i
  40              	@ 0 "" 2
ARM GAS  C:\Users\vellu\AppData\Local\Temp\cca9jQgb.s 			page 2


  18:main.c        **** 
  19:main.c        ****     /* Place your initialization/startup code here (e.g. MyInst_Start()) */
  20:main.c        ****     UART_1_Start();
  41              		.loc 1 20 0
  42              		.thumb
  43 0006 FFF7FEFF 		bl	UART_1_Start
  44              	.LVL0:
  21:main.c        ****     
  22:main.c        ****     int numbers[12]={};
  45              		.loc 1 22 0
  46 000a 0024     		movs	r4, #0
  47 000c 0094     		str	r4, [sp]
  48 000e 0194     		str	r4, [sp, #4]
  49 0010 0294     		str	r4, [sp, #8]
  50 0012 0394     		str	r4, [sp, #12]
  51 0014 0494     		str	r4, [sp, #16]
  52 0016 0594     		str	r4, [sp, #20]
  53 0018 0694     		str	r4, [sp, #24]
  54 001a 0794     		str	r4, [sp, #28]
  55 001c 0894     		str	r4, [sp, #32]
  56 001e 0994     		str	r4, [sp, #36]
  57 0020 0A94     		str	r4, [sp, #40]
  58 0022 0B94     		str	r4, [sp, #44]
  23:main.c        ****     int i;
  24:main.c        ****     
  25:main.c        ****     printf("\nEnter starting number: ");
  59              		.loc 1 25 0
  60 0024 1648     		ldr	r0, .L7
  61 0026 FFF7FEFF 		bl	printf
  62              	.LVL1:
  26:main.c        ****     scanf("%d",&numbers[0]);
  63              		.loc 1 26 0
  64 002a 1648     		ldr	r0, .L7+4
  65 002c 6946     		mov	r1, sp
  66 002e FFF7FEFF 		bl	scanf
  67              	.LVL2:
  27:main.c        ****     for(i=0;i<11;i++)
  68              		.loc 1 27 0
  69 0032 2346     		mov	r3, r4
  70 0034 0BE0     		b	.L2
  71              	.LVL3:
  72              	.L3:
  28:main.c        ****     {
  29:main.c        ****         
  30:main.c        ****         numbers[i+1]=numbers[i]+1;
  73              		.loc 1 30 0 discriminator 3
  74 0036 5A1C     		adds	r2, r3, #1
  75 0038 0CA9     		add	r1, sp, #48
  76 003a 01EB8303 		add	r3, r1, r3, lsl #2
  77              	.LVL4:
  78 003e 53F8303C 		ldr	r3, [r3, #-48]
  79 0042 0133     		adds	r3, r3, #1
  80 0044 01EB8201 		add	r1, r1, r2, lsl #2
  81 0048 41F8303C 		str	r3, [r1, #-48]
  82              	.LVL5:
  27:main.c        ****     for(i=0;i<11;i++)
  83              		.loc 1 27 0 discriminator 3
ARM GAS  C:\Users\vellu\AppData\Local\Temp\cca9jQgb.s 			page 3


  84 004c 1346     		mov	r3, r2
  85              	.LVL6:
  86              	.L2:
  27:main.c        ****     for(i=0;i<11;i++)
  87              		.loc 1 27 0 is_stmt 0 discriminator 1
  88 004e 0A2B     		cmp	r3, #10
  89 0050 F1DD     		ble	.L3
  31:main.c        ****         
  32:main.c        ****     }
  33:main.c        ****     printf("The Values are: \n");
  90              		.loc 1 33 0 is_stmt 1
  91 0052 0D48     		ldr	r0, .L7+8
  92 0054 FFF7FEFF 		bl	puts
  93              	.LVL7:
  34:main.c        ****     for(i=0;i<12;i++)
  94              		.loc 1 34 0
  95 0058 0024     		movs	r4, #0
  96 005a 08E0     		b	.L4
  97              	.LVL8:
  98              	.L5:
  35:main.c        ****     {
  36:main.c        ****         printf("%d ",numbers[i]);
  99              		.loc 1 36 0 discriminator 3
 100 005c 0CAB     		add	r3, sp, #48
 101 005e 03EB8403 		add	r3, r3, r4, lsl #2
 102 0062 0A48     		ldr	r0, .L7+12
 103 0064 53F8301C 		ldr	r1, [r3, #-48]
 104 0068 FFF7FEFF 		bl	printf
 105              	.LVL9:
  34:main.c        ****     for(i=0;i<12;i++)
 106              		.loc 1 34 0 discriminator 3
 107 006c 0134     		adds	r4, r4, #1
 108              	.LVL10:
 109              	.L4:
  34:main.c        ****     for(i=0;i<12;i++)
 110              		.loc 1 34 0 is_stmt 0 discriminator 1
 111 006e 0B2C     		cmp	r4, #11
 112 0070 F4DD     		ble	.L5
  37:main.c        ****     }      
  38:main.c        ****     printf("\n");
 113              		.loc 1 38 0 is_stmt 1
 114 0072 0A20     		movs	r0, #10
 115 0074 FFF7FEFF 		bl	putchar
 116              	.LVL11:
  39:main.c        ****     return 0;
  40:main.c        **** }
 117              		.loc 1 40 0
 118 0078 0020     		movs	r0, #0
 119 007a 0CB0     		add	sp, sp, #48
 120              		.cfi_def_cfa_offset 8
 121              		@ sp needed
 122 007c 10BD     		pop	{r4, pc}
 123              	.LVL12:
 124              	.L8:
 125 007e 00BF     		.align	2
 126              	.L7:
 127 0080 00000000 		.word	.LC0
ARM GAS  C:\Users\vellu\AppData\Local\Temp\cca9jQgb.s 			page 4


 128 0084 1C000000 		.word	.LC1
 129 0088 20000000 		.word	.LC2
 130 008c 34000000 		.word	.LC3
 131              		.cfi_endproc
 132              	.LFE63:
 133              		.size	main, .-main
 134              		.section	.text._write,"ax",%progbits
 135              		.align	2
 136              		.global	_write
 137              		.thumb
 138              		.thumb_func
 139              		.type	_write, %function
 140              	_write:
 141              	.LFB64:
  41:main.c        **** int _write(int file, char *ptr, int len)
  42:main.c        **** {
 142              		.loc 1 42 0
 143              		.cfi_startproc
 144              		@ args = 0, pretend = 0, frame = 0
 145              		@ frame_needed = 0, uses_anonymous_args = 0
 146              	.LVL13:
 147 0000 F8B5     		push	{r3, r4, r5, r6, r7, lr}
 148              		.cfi_def_cfa_offset 24
 149              		.cfi_offset 3, -24
 150              		.cfi_offset 4, -20
 151              		.cfi_offset 5, -16
 152              		.cfi_offset 6, -12
 153              		.cfi_offset 7, -8
 154              		.cfi_offset 14, -4
 155 0002 0C46     		mov	r4, r1
 156 0004 1746     		mov	r7, r2
 157              	.LVL14:
  43:main.c        ****     (void)file; /* Parameter is not used, suppress unused argument warning */
  44:main.c        **** 	int n;
  45:main.c        **** 	for(n = 0; n < len; n++) {
 158              		.loc 1 45 0
 159 0006 0025     		movs	r5, #0
 160 0008 0BE0     		b	.L10
 161              	.LVL15:
 162              	.L12:
  46:main.c        ****         if(*ptr == '\n') UART_1_PutChar('\r');
 163              		.loc 1 46 0
 164 000a 2378     		ldrb	r3, [r4]	@ zero_extendqisi2
 165 000c 0A2B     		cmp	r3, #10
 166 000e 02D1     		bne	.L11
 167              		.loc 1 46 0 is_stmt 0 discriminator 1
 168 0010 0D20     		movs	r0, #13
 169 0012 FFF7FEFF 		bl	UART_1_PutChar
 170              	.LVL16:
 171              	.L11:
  47:main.c        **** 		UART_1_PutChar(*ptr++);
 172              		.loc 1 47 0 is_stmt 1 discriminator 2
 173 0016 661C     		adds	r6, r4, #1
 174              	.LVL17:
 175 0018 2078     		ldrb	r0, [r4]	@ zero_extendqisi2
 176 001a FFF7FEFF 		bl	UART_1_PutChar
 177              	.LVL18:
ARM GAS  C:\Users\vellu\AppData\Local\Temp\cca9jQgb.s 			page 5


  45:main.c        ****         if(*ptr == '\n') UART_1_PutChar('\r');
 178              		.loc 1 45 0 discriminator 2
 179 001e 0135     		adds	r5, r5, #1
 180              	.LVL19:
 181              		.loc 1 47 0 discriminator 2
 182 0020 3446     		mov	r4, r6
 183              	.LVL20:
 184              	.L10:
  45:main.c        ****         if(*ptr == '\n') UART_1_PutChar('\r');
 185              		.loc 1 45 0 discriminator 1
 186 0022 BD42     		cmp	r5, r7
 187 0024 F1DB     		blt	.L12
  48:main.c        **** 	}
  49:main.c        **** 	return len;
  50:main.c        **** }
 188              		.loc 1 50 0
 189 0026 3846     		mov	r0, r7
 190 0028 F8BD     		pop	{r3, r4, r5, r6, r7, pc}
 191              		.cfi_endproc
 192              	.LFE64:
 193              		.size	_write, .-_write
 194 002a 00BF     		.section	.text._read,"ax",%progbits
 195              		.align	2
 196              		.global	_read
 197              		.thumb
 198              		.thumb_func
 199              		.type	_read, %function
 200              	_read:
 201              	.LFB65:
  51:main.c        **** 
  52:main.c        **** int _read (int file, char *ptr, int count)
  53:main.c        **** {
 202              		.loc 1 53 0
 203              		.cfi_startproc
 204              		@ args = 0, pretend = 0, frame = 0
 205              		@ frame_needed = 0, uses_anonymous_args = 0
 206              	.LVL21:
 207 0000 F8B5     		push	{r3, r4, r5, r6, r7, lr}
 208              		.cfi_def_cfa_offset 24
 209              		.cfi_offset 3, -24
 210              		.cfi_offset 4, -20
 211              		.cfi_offset 5, -16
 212              		.cfi_offset 6, -12
 213              		.cfi_offset 7, -8
 214              		.cfi_offset 14, -4
 215 0002 0F46     		mov	r7, r1
 216 0004 1446     		mov	r4, r2
 217              	.LVL22:
  54:main.c        ****     int chs = 0;
 218              		.loc 1 54 0
 219 0006 0026     		movs	r6, #0
  55:main.c        ****     char ch;
  56:main.c        ****  
  57:main.c        ****     (void)file; /* Parameter is not used, suppress unused argument warning */
  58:main.c        ****     while(count > 0) {
 220              		.loc 1 58 0
 221 0008 12E0     		b	.L16
ARM GAS  C:\Users\vellu\AppData\Local\Temp\cca9jQgb.s 			page 6


 222              	.LVL23:
 223              	.L19:
  59:main.c        ****         ch = UART_1_GetChar();
 224              		.loc 1 59 0
 225 000a FFF7FEFF 		bl	UART_1_GetChar
 226              	.LVL24:
  60:main.c        ****         if(ch != 0) {
 227              		.loc 1 60 0
 228 000e 0546     		mov	r5, r0
 229 0010 70B1     		cbz	r0, .L16
  61:main.c        ****             UART_1_PutChar(ch);
 230              		.loc 1 61 0
 231 0012 FFF7FEFF 		bl	UART_1_PutChar
 232              	.LVL25:
  62:main.c        ****             chs++;
 233              		.loc 1 62 0
 234 0016 0136     		adds	r6, r6, #1
 235              	.LVL26:
  63:main.c        ****             if(ch == '\r') {
 236              		.loc 1 63 0
 237 0018 0D2D     		cmp	r5, #13
 238 001a 03D1     		bne	.L17
 239              	.LVL27:
  64:main.c        ****                 ch = '\n';
  65:main.c        ****                 UART_1_PutChar(ch);
 240              		.loc 1 65 0
 241 001c 0A20     		movs	r0, #10
 242 001e FFF7FEFF 		bl	UART_1_PutChar
 243              	.LVL28:
  64:main.c        ****                 ch = '\n';
 244              		.loc 1 64 0
 245 0022 0A25     		movs	r5, #10
 246              	.LVL29:
 247              	.L17:
  66:main.c        ****             }
  67:main.c        ****             *ptr++ = ch;
 248              		.loc 1 67 0
 249 0024 7B1C     		adds	r3, r7, #1
 250              	.LVL30:
 251 0026 3D70     		strb	r5, [r7]
  68:main.c        ****             count--;
 252              		.loc 1 68 0
 253 0028 013C     		subs	r4, r4, #1
 254              	.LVL31:
  69:main.c        ****             if(ch == '\n') break;
 255              		.loc 1 69 0
 256 002a 0A2D     		cmp	r5, #10
 257 002c 02D0     		beq	.L18
  67:main.c        ****             count--;
 258              		.loc 1 67 0
 259 002e 1F46     		mov	r7, r3
 260              	.LVL32:
 261              	.L16:
  58:main.c        ****         ch = UART_1_GetChar();
 262              		.loc 1 58 0
 263 0030 002C     		cmp	r4, #0
 264 0032 EADC     		bgt	.L19
ARM GAS  C:\Users\vellu\AppData\Local\Temp\cca9jQgb.s 			page 7


 265              	.LVL33:
 266              	.L18:
  70:main.c        ****         }
  71:main.c        ****     }
  72:main.c        ****     return chs;
  73:main.c        **** }
 267              		.loc 1 73 0
 268 0034 3046     		mov	r0, r6
 269 0036 F8BD     		pop	{r3, r4, r5, r6, r7, pc}
 270              		.cfi_endproc
 271              	.LFE65:
 272              		.size	_read, .-_read
 273              		.section	.rodata.str1.4,"aMS",%progbits,1
 274              		.align	2
 275              	.LC0:
 276 0000 0A456E74 		.ascii	"\012Enter starting number: \000"
 276      65722073 
 276      74617274 
 276      696E6720 
 276      6E756D62 
 277 0019 000000   		.space	3
 278              	.LC1:
 279 001c 256400   		.ascii	"%d\000"
 280 001f 00       		.space	1
 281              	.LC2:
 282 0020 54686520 		.ascii	"The Values are: \000"
 282      56616C75 
 282      65732061 
 282      72653A20 
 282      00
 283 0031 000000   		.space	3
 284              	.LC3:
 285 0034 25642000 		.ascii	"%d \000"
 286              		.text
 287              	.Letext0:
 288              		.file 2 "c:\\program files (x86)\\cypress\\psoc creator\\4.0\\psoc creator\\import\\gnu\\arm\\4.9.
 289              		.file 3 "c:\\program files (x86)\\cypress\\psoc creator\\4.0\\psoc creator\\import\\gnu\\arm\\4.9.
 290              		.file 4 "Generated_Source\\PSoC5/cytypes.h"
 291              		.file 5 "c:\\program files (x86)\\cypress\\psoc creator\\4.0\\psoc creator\\import\\gnu\\arm\\4.9.
 292              		.file 6 "<built-in>"
 293              		.file 7 "Generated_Source\\PSoC5/core_cm3.h"
 294              		.file 8 "Generated_Source\\PSoC5/UART_1.h"