ARM GAS  C:\Users\vellu\AppData\Local\Temp\ccFXArji.s 			page 1


   1              		.syntax unified
   2              		.cpu cortex-m3
   3              		.fpu softvfp
   4              		.eabi_attribute 20, 1
   5              		.eabi_attribute 21, 1
   6              		.eabi_attribute 23, 3
   7              		.eabi_attribute 24, 1
   8              		.eabi_attribute 25, 1
   9              		.eabi_attribute 26, 1
  10              		.eabi_attribute 30, 1
  11              		.eabi_attribute 34, 1
  12              		.eabi_attribute 18, 4
  13              		.thumb
  14              		.file	"main.c"
  15              		.text
  16              	.Ltext0:
  17              		.cfi_sections	.debug_frame
  18              		.global	__aeabi_fcmpge
  19              		.global	__aeabi_fsub
  20              		.global	__aeabi_f2d
  21              		.section	.text.main,"ax",%progbits
  22              		.align	2
  23              		.global	main
  24              		.thumb
  25              		.thumb_func
  26              		.type	main, %function
  27              	main:
  28              	.LFB63:
  29              		.file 1 "main.c"
   1:main.c        **** /* ========================================
   2:main.c        ****  *
   3:main.c        ****  * Copyright YOUR COMPANY, THE YEAR
   4:main.c        ****  * All Rights Reserved
   5:main.c        ****  * UNPUBLISHED, LICENSED SOFTWARE.
   6:main.c        ****  *
   7:main.c        ****  * CONFIDENTIAL AND PROPRIETARY INFORMATION
   8:main.c        ****  * WHICH IS THE PROPERTY OF your company.
   9:main.c        ****  *
  10:main.c        ****  * ========================================
  11:main.c        **** */
  12:main.c        **** #include "project.h"
  13:main.c        **** #include "stdio.h"
  14:main.c        **** 
  15:main.c        **** int main(void)
  16:main.c        **** {
  30              		.loc 1 16 0
  31              		.cfi_startproc
  32              		@ args = 0, pretend = 0, frame = 8
  33              		@ frame_needed = 0, uses_anonymous_args = 0
  34 0000 10B5     		push	{r4, lr}
  35              		.cfi_def_cfa_offset 8
  36              		.cfi_offset 4, -8
  37              		.cfi_offset 14, -4
  38 0002 82B0     		sub	sp, sp, #8
  39              		.cfi_def_cfa_offset 16
  17:main.c        ****     CyGlobalIntEnable; /* Enable global interrupts. */
  40              		.loc 1 17 0
ARM GAS  C:\Users\vellu\AppData\Local\Temp\ccFXArji.s 			page 2


  41              	@ 17 "main.c" 1
  42 0004 62B6     		CPSIE   i
  43              	@ 0 "" 2
  18:main.c        **** 
  19:main.c        ****     /* Place your initialization/startup code here (e.g. MyInst_Start()) */
  20:main.c        ****     UART_1_Start();
  44              		.loc 1 20 0
  45              		.thumb
  46 0006 FFF7FEFF 		bl	UART_1_Start
  47              	.LVL0:
  21:main.c        ****     
  22:main.c        ****     float cash;
  23:main.c        ****     float price;
  24:main.c        ****     float change;
  25:main.c        ****     float lackingMoney;
  26:main.c        ****     
  27:main.c        ****     printf("\nEnter price of bus ticket: ");
  48              		.loc 1 27 0
  49 000a 1A48     		ldr	r0, .L8
  50 000c FFF7FEFF 		bl	printf
  51              	.LVL1:
  28:main.c        ****     scanf ("%f",&price);
  52              		.loc 1 28 0
  53 0010 194C     		ldr	r4, .L8+4
  54 0012 2046     		mov	r0, r4
  55 0014 6946     		mov	r1, sp
  56 0016 FFF7FEFF 		bl	scanf
  57              	.LVL2:
  29:main.c        ****     printf("\nHow much money do you have: ");
  58              		.loc 1 29 0
  59 001a 1848     		ldr	r0, .L8+8
  60 001c FFF7FEFF 		bl	printf
  61              	.LVL3:
  30:main.c        ****     scanf("%f",&cash);
  62              		.loc 1 30 0
  63 0020 2046     		mov	r0, r4
  64 0022 01A9     		add	r1, sp, #4
  65 0024 FFF7FEFF 		bl	scanf
  66              	.LVL4:
  31:main.c        ****         if(cash>=price) 
  67              		.loc 1 31 0
  68 0028 0198     		ldr	r0, [sp, #4]	@ float
  69 002a 0099     		ldr	r1, [sp]	@ float
  70 002c FFF7FEFF 		bl	__aeabi_fcmpge
  71              	.LVL5:
  72 0030 70B1     		cbz	r0, .L6
  32:main.c        ****         {
  33:main.c        ****             printf("You have enough money for a bus ticket.\n");
  73              		.loc 1 33 0
  74 0032 1348     		ldr	r0, .L8+12
  75 0034 FFF7FEFF 		bl	puts
  76              	.LVL6:
  34:main.c        ****             change=cash-price;
  77              		.loc 1 34 0
  78 0038 0198     		ldr	r0, [sp, #4]	@ float
  79 003a 0099     		ldr	r1, [sp]	@ float
  80 003c FFF7FEFF 		bl	__aeabi_fsub
ARM GAS  C:\Users\vellu\AppData\Local\Temp\ccFXArji.s 			page 3


  81              	.LVL7:
  35:main.c        ****             printf("You have %.2f euros left.\n",change);
  82              		.loc 1 35 0
  83 0040 FFF7FEFF 		bl	__aeabi_f2d
  84              	.LVL8:
  85 0044 0246     		mov	r2, r0
  86 0046 0B46     		mov	r3, r1
  87 0048 0E48     		ldr	r0, .L8+16
  88 004a FFF7FEFF 		bl	printf
  89              	.LVL9:
  90 004e 0DE0     		b	.L4
  91              	.L6:
  36:main.c        ****         }
  37:main.c        ****         else 
  38:main.c        ****         {
  39:main.c        ****             printf("You do not have enough money for a bus ticket.\n");
  92              		.loc 1 39 0
  93 0050 0D48     		ldr	r0, .L8+20
  94 0052 FFF7FEFF 		bl	puts
  95              	.LVL10:
  40:main.c        ****             lackingMoney=price-cash;
  96              		.loc 1 40 0
  97 0056 0098     		ldr	r0, [sp]	@ float
  98 0058 0199     		ldr	r1, [sp, #4]	@ float
  99 005a FFF7FEFF 		bl	__aeabi_fsub
 100              	.LVL11:
  41:main.c        ****             printf("You need %.2f euros more to buy a ticket.\n",lackingMoney);   
 101              		.loc 1 41 0
 102 005e FFF7FEFF 		bl	__aeabi_f2d
 103              	.LVL12:
 104 0062 0246     		mov	r2, r0
 105 0064 0B46     		mov	r3, r1
 106 0066 0948     		ldr	r0, .L8+24
 107 0068 FFF7FEFF 		bl	printf
 108              	.LVL13:
 109              	.L4:
  42:main.c        ****         }
  43:main.c        ****     return 0;
  44:main.c        ****     
  45:main.c        **** }
 110              		.loc 1 45 0
 111 006c 0020     		movs	r0, #0
 112 006e 02B0     		add	sp, sp, #8
 113              		.cfi_def_cfa_offset 8
 114              		@ sp needed
 115 0070 10BD     		pop	{r4, pc}
 116              	.L9:
 117 0072 00BF     		.align	2
 118              	.L8:
 119 0074 00000000 		.word	.LC0
 120 0078 20000000 		.word	.LC1
 121 007c 24000000 		.word	.LC2
 122 0080 44000000 		.word	.LC3
 123 0084 6C000000 		.word	.LC4
 124 0088 88000000 		.word	.LC5
 125 008c B8000000 		.word	.LC6
 126              		.cfi_endproc
ARM GAS  C:\Users\vellu\AppData\Local\Temp\ccFXArji.s 			page 4


 127              	.LFE63:
 128              		.size	main, .-main
 129              		.section	.text._write,"ax",%progbits
 130              		.align	2
 131              		.global	_write
 132              		.thumb
 133              		.thumb_func
 134              		.type	_write, %function
 135              	_write:
 136              	.LFB64:
  46:main.c        **** int _write(int file, char *ptr, int len)
  47:main.c        **** {
 137              		.loc 1 47 0
 138              		.cfi_startproc
 139              		@ args = 0, pretend = 0, frame = 0
 140              		@ frame_needed = 0, uses_anonymous_args = 0
 141              	.LVL14:
 142 0000 F8B5     		push	{r3, r4, r5, r6, r7, lr}
 143              		.cfi_def_cfa_offset 24
 144              		.cfi_offset 3, -24
 145              		.cfi_offset 4, -20
 146              		.cfi_offset 5, -16
 147              		.cfi_offset 6, -12
 148              		.cfi_offset 7, -8
 149              		.cfi_offset 14, -4
 150 0002 0C46     		mov	r4, r1
 151 0004 1746     		mov	r7, r2
 152              	.LVL15:
  48:main.c        ****     (void)file; /* Parameter is not used, suppress unused argument warning */
  49:main.c        **** 	int n;
  50:main.c        **** 	for(n = 0; n < len; n++) {
 153              		.loc 1 50 0
 154 0006 0025     		movs	r5, #0
 155 0008 0BE0     		b	.L11
 156              	.LVL16:
 157              	.L13:
  51:main.c        ****         if(*ptr == '\n') UART_1_PutChar('\r');
 158              		.loc 1 51 0
 159 000a 2378     		ldrb	r3, [r4]	@ zero_extendqisi2
 160 000c 0A2B     		cmp	r3, #10
 161 000e 02D1     		bne	.L12
 162              		.loc 1 51 0 is_stmt 0 discriminator 1
 163 0010 0D20     		movs	r0, #13
 164 0012 FFF7FEFF 		bl	UART_1_PutChar
 165              	.LVL17:
 166              	.L12:
  52:main.c        **** 		UART_1_PutChar(*ptr++);
 167              		.loc 1 52 0 is_stmt 1 discriminator 2
 168 0016 661C     		adds	r6, r4, #1
 169              	.LVL18:
 170 0018 2078     		ldrb	r0, [r4]	@ zero_extendqisi2
 171 001a FFF7FEFF 		bl	UART_1_PutChar
 172              	.LVL19:
  50:main.c        ****         if(*ptr == '\n') UART_1_PutChar('\r');
 173              		.loc 1 50 0 discriminator 2
 174 001e 0135     		adds	r5, r5, #1
 175              	.LVL20:
ARM GAS  C:\Users\vellu\AppData\Local\Temp\ccFXArji.s 			page 5


 176              		.loc 1 52 0 discriminator 2
 177 0020 3446     		mov	r4, r6
 178              	.LVL21:
 179              	.L11:
  50:main.c        ****         if(*ptr == '\n') UART_1_PutChar('\r');
 180              		.loc 1 50 0 discriminator 1
 181 0022 BD42     		cmp	r5, r7
 182 0024 F1DB     		blt	.L13
  53:main.c        **** 	}
  54:main.c        **** 	return len;
  55:main.c        **** }
 183              		.loc 1 55 0
 184 0026 3846     		mov	r0, r7
 185 0028 F8BD     		pop	{r3, r4, r5, r6, r7, pc}
 186              		.cfi_endproc
 187              	.LFE64:
 188              		.size	_write, .-_write
 189 002a 00BF     		.section	.text._read,"ax",%progbits
 190              		.align	2
 191              		.global	_read
 192              		.thumb
 193              		.thumb_func
 194              		.type	_read, %function
 195              	_read:
 196              	.LFB65:
  56:main.c        **** 
  57:main.c        **** int _read (int file, char *ptr, int count)
  58:main.c        **** {
 197              		.loc 1 58 0
 198              		.cfi_startproc
 199              		@ args = 0, pretend = 0, frame = 0
 200              		@ frame_needed = 0, uses_anonymous_args = 0
 201              	.LVL22:
 202 0000 F8B5     		push	{r3, r4, r5, r6, r7, lr}
 203              		.cfi_def_cfa_offset 24
 204              		.cfi_offset 3, -24
 205              		.cfi_offset 4, -20
 206              		.cfi_offset 5, -16
 207              		.cfi_offset 6, -12
 208              		.cfi_offset 7, -8
 209              		.cfi_offset 14, -4
 210 0002 0F46     		mov	r7, r1
 211 0004 1446     		mov	r4, r2
 212              	.LVL23:
  59:main.c        ****     int chs = 0;
 213              		.loc 1 59 0
 214 0006 0026     		movs	r6, #0
  60:main.c        ****     char ch;
  61:main.c        ****  
  62:main.c        ****     (void)file; /* Parameter is not used, suppress unused argument warning */
  63:main.c        ****     while(count > 0) {
 215              		.loc 1 63 0
 216 0008 12E0     		b	.L17
 217              	.LVL24:
 218              	.L20:
  64:main.c        ****         ch = UART_1_GetChar();
 219              		.loc 1 64 0
ARM GAS  C:\Users\vellu\AppData\Local\Temp\ccFXArji.s 			page 6


 220 000a FFF7FEFF 		bl	UART_1_GetChar
 221              	.LVL25:
  65:main.c        ****         if(ch != 0) {
 222              		.loc 1 65 0
 223 000e 0546     		mov	r5, r0
 224 0010 70B1     		cbz	r0, .L17
  66:main.c        ****             UART_1_PutChar(ch);
 225              		.loc 1 66 0
 226 0012 FFF7FEFF 		bl	UART_1_PutChar
 227              	.LVL26:
  67:main.c        ****             chs++;
 228              		.loc 1 67 0
 229 0016 0136     		adds	r6, r6, #1
 230              	.LVL27:
  68:main.c        ****             if(ch == '\r') {
 231              		.loc 1 68 0
 232 0018 0D2D     		cmp	r5, #13
 233 001a 03D1     		bne	.L18
 234              	.LVL28:
  69:main.c        ****                 ch = '\n';
  70:main.c        ****                 UART_1_PutChar(ch);
 235              		.loc 1 70 0
 236 001c 0A20     		movs	r0, #10
 237 001e FFF7FEFF 		bl	UART_1_PutChar
 238              	.LVL29:
  69:main.c        ****                 ch = '\n';
 239              		.loc 1 69 0
 240 0022 0A25     		movs	r5, #10
 241              	.LVL30:
 242              	.L18:
  71:main.c        ****             }
  72:main.c        ****             *ptr++ = ch;
 243              		.loc 1 72 0
 244 0024 7B1C     		adds	r3, r7, #1
 245              	.LVL31:
 246 0026 3D70     		strb	r5, [r7]
  73:main.c        ****             count--;
 247              		.loc 1 73 0
 248 0028 013C     		subs	r4, r4, #1
 249              	.LVL32:
  74:main.c        ****             if(ch == '\n') break;
 250              		.loc 1 74 0
 251 002a 0A2D     		cmp	r5, #10
 252 002c 02D0     		beq	.L19
  72:main.c        ****             count--;
 253              		.loc 1 72 0
 254 002e 1F46     		mov	r7, r3
 255              	.LVL33:
 256              	.L17:
  63:main.c        ****         ch = UART_1_GetChar();
 257              		.loc 1 63 0
 258 0030 002C     		cmp	r4, #0
 259 0032 EADC     		bgt	.L20
 260              	.LVL34:
 261              	.L19:
  75:main.c        ****         }
  76:main.c        ****     }
ARM GAS  C:\Users\vellu\AppData\Local\Temp\ccFXArji.s 			page 7


  77:main.c        ****     return chs;
  78:main.c        **** }
 262              		.loc 1 78 0
 263 0034 3046     		mov	r0, r6
 264 0036 F8BD     		pop	{r3, r4, r5, r6, r7, pc}
 265              		.cfi_endproc
 266              	.LFE65:
 267              		.size	_read, .-_read
 268              		.section	.rodata.str1.4,"aMS",%progbits,1
 269              		.align	2
 270              	.LC0:
 271 0000 0A456E74 		.ascii	"\012Enter price of bus ticket: \000"
 271      65722070 
 271      72696365 
 271      206F6620 
 271      62757320 
 272 001d 000000   		.space	3
 273              	.LC1:
 274 0020 256600   		.ascii	"%f\000"
 275 0023 00       		.space	1
 276              	.LC2:
 277 0024 0A486F77 		.ascii	"\012How much money do you have: \000"
 277      206D7563 
 277      68206D6F 
 277      6E657920 
 277      646F2079 
 278 0042 0000     		.space	2
 279              	.LC3:
 280 0044 596F7520 		.ascii	"You have enough money for a bus ticket.\000"
 280      68617665 
 280      20656E6F 
 280      75676820 
 280      6D6F6E65 
 281              	.LC4:
 282 006c 596F7520 		.ascii	"You have %.2f euros left.\012\000"
 282      68617665 
 282      20252E32 
 282      66206575 
 282      726F7320 
 283 0087 00       		.space	1
 284              	.LC5:
 285 0088 596F7520 		.ascii	"You do not have enough money for a bus ticket.\000"
 285      646F206E 
 285      6F742068 
 285      61766520 
 285      656E6F75 
 286 00b7 00       		.space	1
 287              	.LC6:
 288 00b8 596F7520 		.ascii	"You need %.2f euros more to buy a ticket.\012\000"
 288      6E656564 
 288      20252E32 
 288      66206575 
 288      726F7320 
 289 00e3 00       		.text
 290              	.Letext0:
 291              		.file 2 "c:\\program files (x86)\\cypress\\psoc creator\\4.0\\psoc creator\\import\\gnu\\arm\\4.9.
 292              		.file 3 "c:\\program files (x86)\\cypress\\psoc creator\\4.0\\psoc creator\\import\\gnu\\arm\\4.9.
ARM GAS  C:\Users\vellu\AppData\Local\Temp\ccFXArji.s 			page 8


 293              		.file 4 "Generated_Source\\PSoC5/cytypes.h"
 294              		.file 5 "c:\\program files (x86)\\cypress\\psoc creator\\4.0\\psoc creator\\import\\gnu\\arm\\4.9.
 295              		.file 6 "Generated_Source\\PSoC5/core_cm3.h"
 296              		.file 7 "Generated_Source\\PSoC5/UART_1.h"
 297              		.file 8 "<built-in>"