ARM GAS  C:\Users\vellu\AppData\Local\Temp\ccfocmsT.s 			page 1


   1              		.syntax unified
   2              		.cpu cortex-m3
   3              		.fpu softvfp
   4              		.eabi_attribute 20, 1
   5              		.eabi_attribute 21, 1
   6              		.eabi_attribute 23, 3
   7              		.eabi_attribute 24, 1
   8              		.eabi_attribute 25, 1
   9              		.eabi_attribute 26, 1
  10              		.eabi_attribute 30, 1
  11              		.eabi_attribute 34, 1
  12              		.eabi_attribute 18, 4
  13              		.thumb
  14              		.file	"main.c"
  15              		.text
  16              	.Ltext0:
  17              		.cfi_sections	.debug_frame
  18              		.global	__aeabi_fcmplt
  19              		.global	__aeabi_fdiv
  20              		.section	.text.numScaler,"ax",%progbits
  21              		.align	2
  22              		.global	numScaler
  23              		.thumb
  24              		.thumb_func
  25              		.type	numScaler, %function
  26              	numScaler:
  27              	.LFB64:
  28              		.file 1 "main.c"
   1:main.c        **** /* ========================================
   2:main.c        ****  *
   3:main.c        ****  * Copyright YOUR COMPANY, THE YEAR
   4:main.c        ****  * All Rights Reserved
   5:main.c        ****  * UNPUBLISHED, LICENSED SOFTWARE.
   6:main.c        ****  *
   7:main.c        ****  * CONFIDENTIAL AND PROPRIETARY INFORMATION
   8:main.c        ****  * WHICH IS THE PROPERTY OF your company.
   9:main.c        ****  *
  10:main.c        ****  * ========================================
  11:main.c        **** */
  12:main.c        **** #include "project.h"
  13:main.c        **** #include "stdio.h"
  14:main.c        **** #include <stdlib.h>
  15:main.c        **** #include <time.h>
  16:main.c        **** 
  17:main.c        **** void numScaler (float *num1, float *num2);
  18:main.c        **** 
  19:main.c        **** int main(void)
  20:main.c        **** {
  21:main.c        ****     CyGlobalIntEnable; /* Enable global interrupts. */
  22:main.c        **** 
  23:main.c        ****     /* Place your initialization/startup code here (e.g. MyInst_Start()) */
  24:main.c        ****     UART_1_Start();
  25:main.c        ****     float number1 = 0;
  26:main.c        ****     float number2 = 0;
  27:main.c        ****     float *num1 = 0;
  28:main.c        ****     float *num2 = 0;
  29:main.c        ****     
ARM GAS  C:\Users\vellu\AppData\Local\Temp\ccfocmsT.s 			page 2


  30:main.c        ****     do{
  31:main.c        ****     printf("\nEnter 1. number: ");
  32:main.c        ****     scanf("%f",&number1);
  33:main.c        ****     if (number1 >= 0)
  34:main.c        ****     {
  35:main.c        ****         num1 = &number1;
  36:main.c        ****     }
  37:main.c        ****     else
  38:main.c        ****     {
  39:main.c        ****         printf("\n\aNumber must be positive!");
  40:main.c        ****     }
  41:main.c        ****     }while(number1 <0);
  42:main.c        ****     do{
  43:main.c        ****     printf("\nEnter 2. number: ");
  44:main.c        ****     scanf("%f",&number2);
  45:main.c        ****     if (number2 >= 0)
  46:main.c        ****     {
  47:main.c        ****         num2 = &number2;
  48:main.c        ****     }
  49:main.c        ****     else
  50:main.c        ****     {
  51:main.c        ****         printf("\n\aNumber must be positive!");
  52:main.c        ****     }
  53:main.c        ****     }while(number2 <0);
  54:main.c        ****     numScaler(num1,num2);
  55:main.c        ****     printf("Scaled values are: \n");
  56:main.c        ****     printf("1: %f\n", *num1);
  57:main.c        ****     printf("2: %f\n", *num2);
  58:main.c        ****     return 0;
  59:main.c        **** }
  60:main.c        **** void numScaler (float *num1, float *num2)
  61:main.c        **** {
  29              		.loc 1 61 0
  30              		.cfi_startproc
  31              		@ args = 0, pretend = 0, frame = 0
  32              		@ frame_needed = 0, uses_anonymous_args = 0
  33              	.LVL0:
  34 0000 F8B5     		push	{r3, r4, r5, r6, r7, lr}
  35              		.cfi_def_cfa_offset 24
  36              		.cfi_offset 3, -24
  37              		.cfi_offset 4, -20
  38              		.cfi_offset 5, -16
  39              		.cfi_offset 6, -12
  40              		.cfi_offset 7, -8
  41              		.cfi_offset 14, -4
  42 0002 0446     		mov	r4, r0
  43 0004 0D46     		mov	r5, r1
  62:main.c        ****     
  63:main.c        ****     if (*num1<*num2)
  44              		.loc 1 63 0
  45 0006 0668     		ldr	r6, [r0]	@ float
  46 0008 0F68     		ldr	r7, [r1]	@ float
  47 000a 3046     		mov	r0, r6
  48              	.LVL1:
  49 000c 3946     		mov	r1, r7
  50              	.LVL2:
  51 000e FFF7FEFF 		bl	__aeabi_fcmplt
ARM GAS  C:\Users\vellu\AppData\Local\Temp\ccfocmsT.s 			page 3


  52              	.LVL3:
  53 0012 40B1     		cbz	r0, .L6
  64:main.c        ****     {
  65:main.c        ****         *num1 /= *num2;
  54              		.loc 1 65 0
  55 0014 3046     		mov	r0, r6
  56 0016 3946     		mov	r1, r7
  57 0018 FFF7FEFF 		bl	__aeabi_fdiv
  58              	.LVL4:
  59 001c 2060     		str	r0, [r4]	@ float
  66:main.c        ****         *num2 = 1;
  60              		.loc 1 66 0
  61 001e 4FF07E53 		mov	r3, #1065353216
  62 0022 2B60     		str	r3, [r5]	@ float
  63 0024 F8BD     		pop	{r3, r4, r5, r6, r7, pc}
  64              	.LVL5:
  65              	.L6:
  67:main.c        ****     }
  68:main.c        ****     else
  69:main.c        ****     {
  70:main.c        ****         *num2 /= *num1;
  66              		.loc 1 70 0
  67 0026 3846     		mov	r0, r7
  68 0028 3146     		mov	r1, r6
  69 002a FFF7FEFF 		bl	__aeabi_fdiv
  70              	.LVL6:
  71 002e 2860     		str	r0, [r5]	@ float
  71:main.c        ****         *num1 = 1;
  72              		.loc 1 71 0
  73 0030 4FF07E53 		mov	r3, #1065353216
  74 0034 2360     		str	r3, [r4]	@ float
  75 0036 F8BD     		pop	{r3, r4, r5, r6, r7, pc}
  76              		.cfi_endproc
  77              	.LFE64:
  78              		.size	numScaler, .-numScaler
  79              		.global	__aeabi_fcmpge
  80              		.global	__aeabi_f2d
  81              		.section	.text.main,"ax",%progbits
  82              		.align	2
  83              		.global	main
  84              		.thumb
  85              		.thumb_func
  86              		.type	main, %function
  87              	main:
  88              	.LFB63:
  20:main.c        ****     CyGlobalIntEnable; /* Enable global interrupts. */
  89              		.loc 1 20 0
  90              		.cfi_startproc
  91              		@ args = 0, pretend = 0, frame = 8
  92              		@ frame_needed = 0, uses_anonymous_args = 0
  93 0000 30B5     		push	{r4, r5, lr}
  94              		.cfi_def_cfa_offset 12
  95              		.cfi_offset 4, -12
  96              		.cfi_offset 5, -8
  97              		.cfi_offset 14, -4
  98 0002 83B0     		sub	sp, sp, #12
  99              		.cfi_def_cfa_offset 24
ARM GAS  C:\Users\vellu\AppData\Local\Temp\ccfocmsT.s 			page 4


  21:main.c        **** 
 100              		.loc 1 21 0
 101              	@ 21 "main.c" 1
 102 0004 62B6     		CPSIE   i
 103              	@ 0 "" 2
  24:main.c        ****     float number1 = 0;
 104              		.loc 1 24 0
 105              		.thumb
 106 0006 FFF7FEFF 		bl	UART_1_Start
 107              	.LVL7:
  25:main.c        ****     float number2 = 0;
 108              		.loc 1 25 0
 109 000a 0023     		movs	r3, #0
 110 000c 0193     		str	r3, [sp, #4]	@ float
  26:main.c        ****     float *num1 = 0;
 111              		.loc 1 26 0
 112 000e 0093     		str	r3, [sp]	@ float
 113              	.LVL8:
  27:main.c        ****     float *num2 = 0;
 114              		.loc 1 27 0
 115 0010 0025     		movs	r5, #0
 116              	.LVL9:
 117              	.L10:
  31:main.c        ****     scanf("%f",&number1);
 118              		.loc 1 31 0
 119 0012 2448     		ldr	r0, .L16
 120 0014 FFF7FEFF 		bl	printf
 121              	.LVL10:
  32:main.c        ****     if (number1 >= 0)
 122              		.loc 1 32 0
 123 0018 2348     		ldr	r0, .L16+4
 124 001a 01A9     		add	r1, sp, #4
 125 001c FFF7FEFF 		bl	scanf
 126              	.LVL11:
  33:main.c        ****     {
 127              		.loc 1 33 0
 128 0020 0198     		ldr	r0, [sp, #4]	@ float
 129 0022 0021     		movs	r1, #0
 130 0024 FFF7FEFF 		bl	__aeabi_fcmpge
 131              	.LVL12:
 132 0028 18B9     		cbnz	r0, .L13
  39:main.c        ****     }
 133              		.loc 1 39 0
 134 002a 2048     		ldr	r0, .L16+8
 135 002c FFF7FEFF 		bl	printf
 136              	.LVL13:
 137 0030 00E0     		b	.L9
 138              	.L13:
  35:main.c        ****     }
 139              		.loc 1 35 0
 140 0032 01AD     		add	r5, sp, #4
 141              	.LVL14:
 142              	.L9:
  41:main.c        ****     do{
 143              		.loc 1 41 0
 144 0034 0198     		ldr	r0, [sp, #4]	@ float
 145 0036 0021     		movs	r1, #0
ARM GAS  C:\Users\vellu\AppData\Local\Temp\ccfocmsT.s 			page 5


 146 0038 FFF7FEFF 		bl	__aeabi_fcmplt
 147              	.LVL15:
 148 003c 0028     		cmp	r0, #0
 149 003e E8D1     		bne	.L10
 150 0040 0024     		movs	r4, #0
 151              	.LVL16:
 152              	.L12:
  43:main.c        ****     scanf("%f",&number2);
 153              		.loc 1 43 0
 154 0042 1B48     		ldr	r0, .L16+12
 155 0044 FFF7FEFF 		bl	printf
 156              	.LVL17:
  44:main.c        ****     if (number2 >= 0)
 157              		.loc 1 44 0
 158 0048 1748     		ldr	r0, .L16+4
 159 004a 6946     		mov	r1, sp
 160 004c FFF7FEFF 		bl	scanf
 161              	.LVL18:
  45:main.c        ****     {
 162              		.loc 1 45 0
 163 0050 0098     		ldr	r0, [sp]	@ float
 164 0052 0021     		movs	r1, #0
 165 0054 FFF7FEFF 		bl	__aeabi_fcmpge
 166              	.LVL19:
 167 0058 18B9     		cbnz	r0, .L14
  51:main.c        ****     }
 168              		.loc 1 51 0
 169 005a 1448     		ldr	r0, .L16+8
 170 005c FFF7FEFF 		bl	printf
 171              	.LVL20:
 172 0060 00E0     		b	.L11
 173              	.L14:
  47:main.c        ****     }
 174              		.loc 1 47 0
 175 0062 6C46     		mov	r4, sp
 176              	.LVL21:
 177              	.L11:
  53:main.c        ****     numScaler(num1,num2);
 178              		.loc 1 53 0
 179 0064 0098     		ldr	r0, [sp]	@ float
 180 0066 0021     		movs	r1, #0
 181 0068 FFF7FEFF 		bl	__aeabi_fcmplt
 182              	.LVL22:
 183 006c 0028     		cmp	r0, #0
 184 006e E8D1     		bne	.L12
  54:main.c        ****     printf("Scaled values are: \n");
 185              		.loc 1 54 0
 186 0070 2846     		mov	r0, r5
 187 0072 2146     		mov	r1, r4
 188 0074 FFF7FEFF 		bl	numScaler
 189              	.LVL23:
  55:main.c        ****     printf("1: %f\n", *num1);
 190              		.loc 1 55 0
 191 0078 0E48     		ldr	r0, .L16+16
 192 007a FFF7FEFF 		bl	puts
 193              	.LVL24:
  56:main.c        ****     printf("2: %f\n", *num2);
ARM GAS  C:\Users\vellu\AppData\Local\Temp\ccfocmsT.s 			page 6


 194              		.loc 1 56 0
 195 007e 2868     		ldr	r0, [r5]	@ float
 196 0080 FFF7FEFF 		bl	__aeabi_f2d
 197              	.LVL25:
 198 0084 0246     		mov	r2, r0
 199 0086 0B46     		mov	r3, r1
 200 0088 0B48     		ldr	r0, .L16+20
 201 008a FFF7FEFF 		bl	printf
 202              	.LVL26:
  57:main.c        ****     return 0;
 203              		.loc 1 57 0
 204 008e 2068     		ldr	r0, [r4]	@ float
 205 0090 FFF7FEFF 		bl	__aeabi_f2d
 206              	.LVL27:
 207 0094 0246     		mov	r2, r0
 208 0096 0B46     		mov	r3, r1
 209 0098 0848     		ldr	r0, .L16+24
 210 009a FFF7FEFF 		bl	printf
 211              	.LVL28:
  59:main.c        **** void numScaler (float *num1, float *num2)
 212              		.loc 1 59 0
 213 009e 0020     		movs	r0, #0
 214 00a0 03B0     		add	sp, sp, #12
 215              		.cfi_def_cfa_offset 12
 216              		@ sp needed
 217 00a2 30BD     		pop	{r4, r5, pc}
 218              	.LVL29:
 219              	.L17:
 220              		.align	2
 221              	.L16:
 222 00a4 00000000 		.word	.LC0
 223 00a8 14000000 		.word	.LC1
 224 00ac 18000000 		.word	.LC2
 225 00b0 34000000 		.word	.LC3
 226 00b4 48000000 		.word	.LC4
 227 00b8 5C000000 		.word	.LC5
 228 00bc 64000000 		.word	.LC6
 229              		.cfi_endproc
 230              	.LFE63:
 231              		.size	main, .-main
 232              		.section	.text._write,"ax",%progbits
 233              		.align	2
 234              		.global	_write
 235              		.thumb
 236              		.thumb_func
 237              		.type	_write, %function
 238              	_write:
 239              	.LFB65:
  72:main.c        ****     }
  73:main.c        ****     
  74:main.c        ****     
  75:main.c        **** }
  76:main.c        **** 
  77:main.c        **** int _write(int file, char *ptr, int len)
  78:main.c        **** {
 240              		.loc 1 78 0
 241              		.cfi_startproc
ARM GAS  C:\Users\vellu\AppData\Local\Temp\ccfocmsT.s 			page 7


 242              		@ args = 0, pretend = 0, frame = 0
 243              		@ frame_needed = 0, uses_anonymous_args = 0
 244              	.LVL30:
 245 0000 F8B5     		push	{r3, r4, r5, r6, r7, lr}
 246              		.cfi_def_cfa_offset 24
 247              		.cfi_offset 3, -24
 248              		.cfi_offset 4, -20
 249              		.cfi_offset 5, -16
 250              		.cfi_offset 6, -12
 251              		.cfi_offset 7, -8
 252              		.cfi_offset 14, -4
 253 0002 0C46     		mov	r4, r1
 254 0004 1746     		mov	r7, r2
 255              	.LVL31:
  79:main.c        ****     (void)file; /* Parameter is not used, suppress unused argument warning */
  80:main.c        **** 	int n;
  81:main.c        **** 	for(n = 0; n < len; n++) {
 256              		.loc 1 81 0
 257 0006 0025     		movs	r5, #0
 258 0008 0BE0     		b	.L19
 259              	.LVL32:
 260              	.L21:
  82:main.c        ****         if(*ptr == '\n') UART_1_PutChar('\r');
 261              		.loc 1 82 0
 262 000a 2378     		ldrb	r3, [r4]	@ zero_extendqisi2
 263 000c 0A2B     		cmp	r3, #10
 264 000e 02D1     		bne	.L20
 265              		.loc 1 82 0 is_stmt 0 discriminator 1
 266 0010 0D20     		movs	r0, #13
 267 0012 FFF7FEFF 		bl	UART_1_PutChar
 268              	.LVL33:
 269              	.L20:
  83:main.c        **** 		UART_1_PutChar(*ptr++);
 270              		.loc 1 83 0 is_stmt 1 discriminator 2
 271 0016 661C     		adds	r6, r4, #1
 272              	.LVL34:
 273 0018 2078     		ldrb	r0, [r4]	@ zero_extendqisi2
 274 001a FFF7FEFF 		bl	UART_1_PutChar
 275              	.LVL35:
  81:main.c        ****         if(*ptr == '\n') UART_1_PutChar('\r');
 276              		.loc 1 81 0 discriminator 2
 277 001e 0135     		adds	r5, r5, #1
 278              	.LVL36:
 279              		.loc 1 83 0 discriminator 2
 280 0020 3446     		mov	r4, r6
 281              	.LVL37:
 282              	.L19:
  81:main.c        ****         if(*ptr == '\n') UART_1_PutChar('\r');
 283              		.loc 1 81 0 discriminator 1
 284 0022 BD42     		cmp	r5, r7
 285 0024 F1DB     		blt	.L21
  84:main.c        **** 	}
  85:main.c        **** 	return len;
  86:main.c        **** }
 286              		.loc 1 86 0
 287 0026 3846     		mov	r0, r7
 288 0028 F8BD     		pop	{r3, r4, r5, r6, r7, pc}
ARM GAS  C:\Users\vellu\AppData\Local\Temp\ccfocmsT.s 			page 8


 289              		.cfi_endproc
 290              	.LFE65:
 291              		.size	_write, .-_write
 292 002a 00BF     		.section	.text._read,"ax",%progbits
 293              		.align	2
 294              		.global	_read
 295              		.thumb
 296              		.thumb_func
 297              		.type	_read, %function
 298              	_read:
 299              	.LFB66:
  87:main.c        **** 
  88:main.c        **** int _read (int file, char *ptr, int count)
  89:main.c        **** {
 300              		.loc 1 89 0
 301              		.cfi_startproc
 302              		@ args = 0, pretend = 0, frame = 0
 303              		@ frame_needed = 0, uses_anonymous_args = 0
 304              	.LVL38:
 305 0000 F8B5     		push	{r3, r4, r5, r6, r7, lr}
 306              		.cfi_def_cfa_offset 24
 307              		.cfi_offset 3, -24
 308              		.cfi_offset 4, -20
 309              		.cfi_offset 5, -16
 310              		.cfi_offset 6, -12
 311              		.cfi_offset 7, -8
 312              		.cfi_offset 14, -4
 313 0002 0F46     		mov	r7, r1
 314 0004 1446     		mov	r4, r2
 315              	.LVL39:
  90:main.c        ****     int chs = 0;
 316              		.loc 1 90 0
 317 0006 0026     		movs	r6, #0
  91:main.c        ****     char ch;
  92:main.c        ****  
  93:main.c        ****     (void)file; /* Parameter is not used, suppress unused argument warning */
  94:main.c        ****     while(count > 0) {
 318              		.loc 1 94 0
 319 0008 12E0     		b	.L25
 320              	.LVL40:
 321              	.L28:
  95:main.c        ****         ch = UART_1_GetChar();
 322              		.loc 1 95 0
 323 000a FFF7FEFF 		bl	UART_1_GetChar
 324              	.LVL41:
  96:main.c        ****         if(ch != 0) {
 325              		.loc 1 96 0
 326 000e 0546     		mov	r5, r0
 327 0010 70B1     		cbz	r0, .L25
  97:main.c        ****             UART_1_PutChar(ch);
 328              		.loc 1 97 0
 329 0012 FFF7FEFF 		bl	UART_1_PutChar
 330              	.LVL42:
  98:main.c        ****             chs++;
 331              		.loc 1 98 0
 332 0016 0136     		adds	r6, r6, #1
 333              	.LVL43:
ARM GAS  C:\Users\vellu\AppData\Local\Temp\ccfocmsT.s 			page 9


  99:main.c        ****             if(ch == '\r') {
 334              		.loc 1 99 0
 335 0018 0D2D     		cmp	r5, #13
 336 001a 03D1     		bne	.L26
 337              	.LVL44:
 100:main.c        ****                 ch = '\n';
 101:main.c        ****                 UART_1_PutChar(ch);
 338              		.loc 1 101 0
 339 001c 0A20     		movs	r0, #10
 340 001e FFF7FEFF 		bl	UART_1_PutChar
 341              	.LVL45:
 100:main.c        ****                 ch = '\n';
 342              		.loc 1 100 0
 343 0022 0A25     		movs	r5, #10
 344              	.LVL46:
 345              	.L26:
 102:main.c        ****             }
 103:main.c        ****             *ptr++ = ch;
 346              		.loc 1 103 0
 347 0024 7B1C     		adds	r3, r7, #1
 348              	.LVL47:
 349 0026 3D70     		strb	r5, [r7]
 104:main.c        ****             count--;
 350              		.loc 1 104 0
 351 0028 013C     		subs	r4, r4, #1
 352              	.LVL48:
 105:main.c        ****             if(ch == '\n') break;
 353              		.loc 1 105 0
 354 002a 0A2D     		cmp	r5, #10
 355 002c 02D0     		beq	.L27
 103:main.c        ****             count--;
 356              		.loc 1 103 0
 357 002e 1F46     		mov	r7, r3
 358              	.LVL49:
 359              	.L25:
  94:main.c        ****         ch = UART_1_GetChar();
 360              		.loc 1 94 0
 361 0030 002C     		cmp	r4, #0
 362 0032 EADC     		bgt	.L28
 363              	.LVL50:
 364              	.L27:
 106:main.c        ****         }
 107:main.c        ****     }
 108:main.c        ****     return chs;
 109:main.c        **** }
 365              		.loc 1 109 0
 366 0034 3046     		mov	r0, r6
 367 0036 F8BD     		pop	{r3, r4, r5, r6, r7, pc}
 368              		.cfi_endproc
 369              	.LFE66:
 370              		.size	_read, .-_read
 371              		.section	.rodata.str1.4,"aMS",%progbits,1
 372              		.align	2
 373              	.LC0:
 374 0000 0A456E74 		.ascii	"\012Enter 1. number: \000"
 374      65722031 
 374      2E206E75 
ARM GAS  C:\Users\vellu\AppData\Local\Temp\ccfocmsT.s 			page 10


 374      6D626572 
 374      3A2000
 375 0013 00       		.space	1
 376              	.LC1:
 377 0014 256600   		.ascii	"%f\000"
 378 0017 00       		.space	1
 379              	.LC2:
 380 0018 0A074E75 		.ascii	"\012\007Number must be positive!\000"
 380      6D626572 
 380      206D7573 
 380      74206265 
 380      20706F73 
 381 0033 00       		.space	1
 382              	.LC3:
 383 0034 0A456E74 		.ascii	"\012Enter 2. number: \000"
 383      65722032 
 383      2E206E75 
 383      6D626572 
 383      3A2000
 384 0047 00       		.space	1
 385              	.LC4:
 386 0048 5363616C 		.ascii	"Scaled values are: \000"
 386      65642076 
 386      616C7565 
 386      73206172 
 386      653A2000 
 387              	.LC5:
 388 005c 313A2025 		.ascii	"1: %f\012\000"
 388      660A00
 389 0063 00       		.space	1
 390              	.LC6:
 391 0064 323A2025 		.ascii	"2: %f\012\000"
 391      660A00
 392 006b 00       		.text
 393              	.Letext0:
 394              		.file 2 "c:\\program files (x86)\\cypress\\psoc creator\\4.0\\psoc creator\\import\\gnu\\arm\\4.9.
 395              		.file 3 "c:\\program files (x86)\\cypress\\psoc creator\\4.0\\psoc creator\\import\\gnu\\arm\\4.9.
 396              		.file 4 "Generated_Source\\PSoC5/cytypes.h"
 397              		.file 5 "c:\\program files (x86)\\cypress\\psoc creator\\4.0\\psoc creator\\import\\gnu\\arm\\4.9.
 398              		.file 6 "Generated_Source\\PSoC5/core_cm3.h"
 399              		.file 7 "Generated_Source\\PSoC5/UART_1.h"
 400              		.file 8 "<built-in>"