ARM GAS  C:\Users\vellu\AppData\Local\Temp\cc6OWcMf.s 			page 1


   1              		.syntax unified
   2              		.cpu cortex-m3
   3              		.fpu softvfp
   4              		.eabi_attribute 20, 1
   5              		.eabi_attribute 21, 1
   6              		.eabi_attribute 23, 3
   7              		.eabi_attribute 24, 1
   8              		.eabi_attribute 25, 1
   9              		.eabi_attribute 26, 1
  10              		.eabi_attribute 30, 1
  11              		.eabi_attribute 34, 1
  12              		.eabi_attribute 18, 4
  13              		.thumb
  14              		.file	"main.c"
  15              		.text
  16              	.Ltext0:
  17              		.cfi_sections	.debug_frame
  18              		.global	__aeabi_i2f
  19              		.global	__aeabi_f2d
  20              		.global	__aeabi_fmul
  21              		.section	.text.moneyWasher,"ax",%progbits
  22              		.align	2
  23              		.global	moneyWasher
  24              		.thumb
  25              		.thumb_func
  26              		.type	moneyWasher, %function
  27              	moneyWasher:
  28              	.LFB64:
  29              		.file 1 "main.c"
   1:main.c        **** /* ========================================
   2:main.c        ****  *
   3:main.c        ****  * Copyright YOUR COMPANY, THE YEAR
   4:main.c        ****  * All Rights Reserved
   5:main.c        ****  * UNPUBLISHED, LICENSED SOFTWARE.
   6:main.c        ****  *
   7:main.c        ****  * CONFIDENTIAL AND PROPRIETARY INFORMATION
   8:main.c        ****  * WHICH IS THE PROPERTY OF your company.
   9:main.c        ****  *
  10:main.c        ****  * ========================================
  11:main.c        **** */
  12:main.c        **** #include "project.h"
  13:main.c        **** #include "stdio.h"
  14:main.c        **** float moneyWasher(int euros, int dollars);
  15:main.c        **** int main(void)
  16:main.c        **** {
  17:main.c        ****     CyGlobalIntEnable; /* Enable global interrupts. */
  18:main.c        **** 
  19:main.c        ****     /* Place your initialization/startup code here (e.g. MyInst_Start()) */
  20:main.c        ****     UART_1_Start();
  21:main.c        ****     
  22:main.c        ****     int euros = 0;
  23:main.c        ****     int dollars = 0;
  24:main.c        ****     float resultFromWasher;
  25:main.c        ****     
  26:main.c        ****     
  27:main.c        ****     printf("\nEnter amount of euros: ");
  28:main.c        ****     scanf("%d",&euros);
ARM GAS  C:\Users\vellu\AppData\Local\Temp\cc6OWcMf.s 			page 2


  29:main.c        ****     printf("\nEnter amount of dollars: ");
  30:main.c        ****     scanf("%d",&dollars);
  31:main.c        ****     
  32:main.c        ****     resultFromWasher = moneyWasher(euros,dollars);
  33:main.c        ****     
  34:main.c        ****     printf("You'll get %f dollars. \n",resultFromWasher);
  35:main.c        ****     
  36:main.c        ****     return 0;
  37:main.c        **** }
  38:main.c        **** float moneyWasher(int euros,int dollars)
  39:main.c        **** {
  30              		.loc 1 39 0
  31              		.cfi_startproc
  32              		@ args = 0, pretend = 0, frame = 8
  33              		@ frame_needed = 0, uses_anonymous_args = 0
  34              	.LVL0:
  35 0000 30B5     		push	{r4, r5, lr}
  36              		.cfi_def_cfa_offset 12
  37              		.cfi_offset 4, -12
  38              		.cfi_offset 5, -8
  39              		.cfi_offset 14, -4
  40 0002 83B0     		sub	sp, sp, #12
  41              		.cfi_def_cfa_offset 24
  42 0004 02AC     		add	r4, sp, #8
  43 0006 44F8040D 		str	r0, [r4, #-4]!
  44              	.LVL1:
  40:main.c        ****     float result=0;
  41:main.c        ****     float exchangeRate;
  42:main.c        ****     exchangeRate = dollars/euros;
  45              		.loc 1 42 0
  46 000a 91FBF0F0 		sdiv	r0, r1, r0
  47              	.LVL2:
  48 000e FFF7FEFF 		bl	__aeabi_i2f
  49              	.LVL3:
  50 0012 0546     		mov	r5, r0
  51              	.LVL4:
  43:main.c        ****     printf("\nexchange rate:%.4f\n",exchangeRate);
  52              		.loc 1 43 0
  53 0014 FFF7FEFF 		bl	__aeabi_f2d
  54              	.LVL5:
  55 0018 0246     		mov	r2, r0
  56 001a 0B46     		mov	r3, r1
  57 001c 0848     		ldr	r0, .L3
  58 001e FFF7FEFF 		bl	printf
  59              	.LVL6:
  44:main.c        ****     printf("\nHow many euros do want to exchange: ");
  60              		.loc 1 44 0
  61 0022 0848     		ldr	r0, .L3+4
  62 0024 FFF7FEFF 		bl	printf
  63              	.LVL7:
  45:main.c        ****     scanf("%d",&euros);
  64              		.loc 1 45 0
  65 0028 0748     		ldr	r0, .L3+8
  66 002a 2146     		mov	r1, r4
  67 002c FFF7FEFF 		bl	scanf
  68              	.LVL8:
  46:main.c        ****     
ARM GAS  C:\Users\vellu\AppData\Local\Temp\cc6OWcMf.s 			page 3


  47:main.c        ****     result = euros * exchangeRate;
  69              		.loc 1 47 0
  70 0030 0198     		ldr	r0, [sp, #4]
  71 0032 FFF7FEFF 		bl	__aeabi_i2f
  72              	.LVL9:
  73 0036 2946     		mov	r1, r5
  74 0038 FFF7FEFF 		bl	__aeabi_fmul
  75              	.LVL10:
  48:main.c        ****     
  49:main.c        ****     return result;
  50:main.c        **** }
  76              		.loc 1 50 0
  77 003c 03B0     		add	sp, sp, #12
  78              		.cfi_def_cfa_offset 12
  79              		@ sp needed
  80 003e 30BD     		pop	{r4, r5, pc}
  81              	.LVL11:
  82              	.L4:
  83              		.align	2
  84              	.L3:
  85 0040 00000000 		.word	.LC0
  86 0044 18000000 		.word	.LC1
  87 0048 40000000 		.word	.LC2
  88              		.cfi_endproc
  89              	.LFE64:
  90              		.size	moneyWasher, .-moneyWasher
  91              		.section	.text.main,"ax",%progbits
  92              		.align	2
  93              		.global	main
  94              		.thumb
  95              		.thumb_func
  96              		.type	main, %function
  97              	main:
  98              	.LFB63:
  16:main.c        ****     CyGlobalIntEnable; /* Enable global interrupts. */
  99              		.loc 1 16 0
 100              		.cfi_startproc
 101              		@ args = 0, pretend = 0, frame = 8
 102              		@ frame_needed = 0, uses_anonymous_args = 0
 103 0000 30B5     		push	{r4, r5, lr}
 104              		.cfi_def_cfa_offset 12
 105              		.cfi_offset 4, -12
 106              		.cfi_offset 5, -8
 107              		.cfi_offset 14, -4
 108 0002 83B0     		sub	sp, sp, #12
 109              		.cfi_def_cfa_offset 24
  17:main.c        **** 
 110              		.loc 1 17 0
 111              	@ 17 "main.c" 1
 112 0004 62B6     		CPSIE   i
 113              	@ 0 "" 2
  20:main.c        ****     
 114              		.loc 1 20 0
 115              		.thumb
 116 0006 FFF7FEFF 		bl	UART_1_Start
 117              	.LVL12:
  22:main.c        ****     int dollars = 0;
ARM GAS  C:\Users\vellu\AppData\Local\Temp\cc6OWcMf.s 			page 4


 118              		.loc 1 22 0
 119 000a 0024     		movs	r4, #0
 120 000c 0194     		str	r4, [sp, #4]
  23:main.c        ****     float resultFromWasher;
 121              		.loc 1 23 0
 122 000e 0094     		str	r4, [sp]
  27:main.c        ****     scanf("%d",&euros);
 123              		.loc 1 27 0
 124 0010 0E48     		ldr	r0, .L7
 125 0012 FFF7FEFF 		bl	printf
 126              	.LVL13:
  28:main.c        ****     printf("\nEnter amount of dollars: ");
 127              		.loc 1 28 0
 128 0016 0E4D     		ldr	r5, .L7+4
 129 0018 2846     		mov	r0, r5
 130 001a 01A9     		add	r1, sp, #4
 131 001c FFF7FEFF 		bl	scanf
 132              	.LVL14:
  29:main.c        ****     scanf("%d",&dollars);
 133              		.loc 1 29 0
 134 0020 0C48     		ldr	r0, .L7+8
 135 0022 FFF7FEFF 		bl	printf
 136              	.LVL15:
  30:main.c        ****     
 137              		.loc 1 30 0
 138 0026 2846     		mov	r0, r5
 139 0028 6946     		mov	r1, sp
 140 002a FFF7FEFF 		bl	scanf
 141              	.LVL16:
  32:main.c        ****     
 142              		.loc 1 32 0
 143 002e 0198     		ldr	r0, [sp, #4]
 144 0030 0099     		ldr	r1, [sp]
 145 0032 FFF7FEFF 		bl	moneyWasher
 146              	.LVL17:
  34:main.c        ****     
 147              		.loc 1 34 0
 148 0036 FFF7FEFF 		bl	__aeabi_f2d
 149              	.LVL18:
 150 003a 0246     		mov	r2, r0
 151 003c 0B46     		mov	r3, r1
 152 003e 0648     		ldr	r0, .L7+12
 153 0040 FFF7FEFF 		bl	printf
 154              	.LVL19:
  37:main.c        **** float moneyWasher(int euros,int dollars)
 155              		.loc 1 37 0
 156 0044 2046     		mov	r0, r4
 157 0046 03B0     		add	sp, sp, #12
 158              		.cfi_def_cfa_offset 12
 159              		@ sp needed
 160 0048 30BD     		pop	{r4, r5, pc}
 161              	.L8:
 162 004a 00BF     		.align	2
 163              	.L7:
 164 004c 44000000 		.word	.LC3
 165 0050 40000000 		.word	.LC2
 166 0054 60000000 		.word	.LC4
ARM GAS  C:\Users\vellu\AppData\Local\Temp\cc6OWcMf.s 			page 5


 167 0058 7C000000 		.word	.LC5
 168              		.cfi_endproc
 169              	.LFE63:
 170              		.size	main, .-main
 171              		.section	.text._write,"ax",%progbits
 172              		.align	2
 173              		.global	_write
 174              		.thumb
 175              		.thumb_func
 176              		.type	_write, %function
 177              	_write:
 178              	.LFB65:
  51:main.c        ****     
  52:main.c        **** int _write(int file, char *ptr, int len)
  53:main.c        **** {
 179              		.loc 1 53 0
 180              		.cfi_startproc
 181              		@ args = 0, pretend = 0, frame = 0
 182              		@ frame_needed = 0, uses_anonymous_args = 0
 183              	.LVL20:
 184 0000 F8B5     		push	{r3, r4, r5, r6, r7, lr}
 185              		.cfi_def_cfa_offset 24
 186              		.cfi_offset 3, -24
 187              		.cfi_offset 4, -20
 188              		.cfi_offset 5, -16
 189              		.cfi_offset 6, -12
 190              		.cfi_offset 7, -8
 191              		.cfi_offset 14, -4
 192 0002 0C46     		mov	r4, r1
 193 0004 1746     		mov	r7, r2
 194              	.LVL21:
  54:main.c        ****     (void)file; /* Parameter is not used, suppress unused argument warning */
  55:main.c        **** 	int n;
  56:main.c        **** 	for(n = 0; n < len; n++) {
 195              		.loc 1 56 0
 196 0006 0025     		movs	r5, #0
 197 0008 0BE0     		b	.L10
 198              	.LVL22:
 199              	.L12:
  57:main.c        ****         if(*ptr == '\n') UART_1_PutChar('\r');
 200              		.loc 1 57 0
 201 000a 2378     		ldrb	r3, [r4]	@ zero_extendqisi2
 202 000c 0A2B     		cmp	r3, #10
 203 000e 02D1     		bne	.L11
 204              		.loc 1 57 0 is_stmt 0 discriminator 1
 205 0010 0D20     		movs	r0, #13
 206 0012 FFF7FEFF 		bl	UART_1_PutChar
 207              	.LVL23:
 208              	.L11:
  58:main.c        **** 		UART_1_PutChar(*ptr++);
 209              		.loc 1 58 0 is_stmt 1 discriminator 2
 210 0016 661C     		adds	r6, r4, #1
 211              	.LVL24:
 212 0018 2078     		ldrb	r0, [r4]	@ zero_extendqisi2
 213 001a FFF7FEFF 		bl	UART_1_PutChar
 214              	.LVL25:
  56:main.c        ****         if(*ptr == '\n') UART_1_PutChar('\r');
ARM GAS  C:\Users\vellu\AppData\Local\Temp\cc6OWcMf.s 			page 6


 215              		.loc 1 56 0 discriminator 2
 216 001e 0135     		adds	r5, r5, #1
 217              	.LVL26:
 218              		.loc 1 58 0 discriminator 2
 219 0020 3446     		mov	r4, r6
 220              	.LVL27:
 221              	.L10:
  56:main.c        ****         if(*ptr == '\n') UART_1_PutChar('\r');
 222              		.loc 1 56 0 discriminator 1
 223 0022 BD42     		cmp	r5, r7
 224 0024 F1DB     		blt	.L12
  59:main.c        **** 	}
  60:main.c        **** 	return len;
  61:main.c        **** }
 225              		.loc 1 61 0
 226 0026 3846     		mov	r0, r7
 227 0028 F8BD     		pop	{r3, r4, r5, r6, r7, pc}
 228              		.cfi_endproc
 229              	.LFE65:
 230              		.size	_write, .-_write
 231 002a 00BF     		.section	.text._read,"ax",%progbits
 232              		.align	2
 233              		.global	_read
 234              		.thumb
 235              		.thumb_func
 236              		.type	_read, %function
 237              	_read:
 238              	.LFB66:
  62:main.c        **** 
  63:main.c        **** int _read (int file, char *ptr, int count)
  64:main.c        **** {
 239              		.loc 1 64 0
 240              		.cfi_startproc
 241              		@ args = 0, pretend = 0, frame = 0
 242              		@ frame_needed = 0, uses_anonymous_args = 0
 243              	.LVL28:
 244 0000 F8B5     		push	{r3, r4, r5, r6, r7, lr}
 245              		.cfi_def_cfa_offset 24
 246              		.cfi_offset 3, -24
 247              		.cfi_offset 4, -20
 248              		.cfi_offset 5, -16
 249              		.cfi_offset 6, -12
 250              		.cfi_offset 7, -8
 251              		.cfi_offset 14, -4
 252 0002 0F46     		mov	r7, r1
 253 0004 1446     		mov	r4, r2
 254              	.LVL29:
  65:main.c        ****     int chs = 0;
 255              		.loc 1 65 0
 256 0006 0026     		movs	r6, #0
  66:main.c        ****     char ch;
  67:main.c        ****  
  68:main.c        ****     (void)file; /* Parameter is not used, suppress unused argument warning */
  69:main.c        ****     while(count > 0) {
 257              		.loc 1 69 0
 258 0008 12E0     		b	.L16
 259              	.LVL30:
ARM GAS  C:\Users\vellu\AppData\Local\Temp\cc6OWcMf.s 			page 7


 260              	.L19:
  70:main.c        ****         ch = UART_1_GetChar();
 261              		.loc 1 70 0
 262 000a FFF7FEFF 		bl	UART_1_GetChar
 263              	.LVL31:
  71:main.c        ****         if(ch != 0) {
 264              		.loc 1 71 0
 265 000e 0546     		mov	r5, r0
 266 0010 70B1     		cbz	r0, .L16
  72:main.c        ****             UART_1_PutChar(ch);
 267              		.loc 1 72 0
 268 0012 FFF7FEFF 		bl	UART_1_PutChar
 269              	.LVL32:
  73:main.c        ****             chs++;
 270              		.loc 1 73 0
 271 0016 0136     		adds	r6, r6, #1
 272              	.LVL33:
  74:main.c        ****             if(ch == '\r') {
 273              		.loc 1 74 0
 274 0018 0D2D     		cmp	r5, #13
 275 001a 03D1     		bne	.L17
 276              	.LVL34:
  75:main.c        ****                 ch = '\n';
  76:main.c        ****                 UART_1_PutChar(ch);
 277              		.loc 1 76 0
 278 001c 0A20     		movs	r0, #10
 279 001e FFF7FEFF 		bl	UART_1_PutChar
 280              	.LVL35:
  75:main.c        ****                 ch = '\n';
 281              		.loc 1 75 0
 282 0022 0A25     		movs	r5, #10
 283              	.LVL36:
 284              	.L17:
  77:main.c        ****             }
  78:main.c        ****             *ptr++ = ch;
 285              		.loc 1 78 0
 286 0024 7B1C     		adds	r3, r7, #1
 287              	.LVL37:
 288 0026 3D70     		strb	r5, [r7]
  79:main.c        ****             count--;
 289              		.loc 1 79 0
 290 0028 013C     		subs	r4, r4, #1
 291              	.LVL38:
  80:main.c        ****             if(ch == '\n') break;
 292              		.loc 1 80 0
 293 002a 0A2D     		cmp	r5, #10
 294 002c 02D0     		beq	.L18
  78:main.c        ****             count--;
 295              		.loc 1 78 0
 296 002e 1F46     		mov	r7, r3
 297              	.LVL39:
 298              	.L16:
  69:main.c        ****         ch = UART_1_GetChar();
 299              		.loc 1 69 0
 300 0030 002C     		cmp	r4, #0
 301 0032 EADC     		bgt	.L19
 302              	.LVL40:
ARM GAS  C:\Users\vellu\AppData\Local\Temp\cc6OWcMf.s 			page 8


 303              	.L18:
  81:main.c        ****         }
  82:main.c        ****     }
  83:main.c        ****     return chs;
  84:main.c        **** }
 304              		.loc 1 84 0
 305 0034 3046     		mov	r0, r6
 306 0036 F8BD     		pop	{r3, r4, r5, r6, r7, pc}
 307              		.cfi_endproc
 308              	.LFE66:
 309              		.size	_read, .-_read
 310              		.section	.rodata.str1.4,"aMS",%progbits,1
 311              		.align	2
 312              	.LC0:
 313 0000 0A657863 		.ascii	"\012exchange rate:%.4f\012\000"
 313      68616E67 
 313      65207261 
 313      74653A25 
 313      2E34660A 
 314 0015 000000   		.space	3
 315              	.LC1:
 316 0018 0A486F77 		.ascii	"\012How many euros do want to exchange: \000"
 316      206D616E 
 316      79206575 
 316      726F7320 
 316      646F2077 
 317 003e 0000     		.space	2
 318              	.LC2:
 319 0040 256400   		.ascii	"%d\000"
 320 0043 00       		.space	1
 321              	.LC3:
 322 0044 0A456E74 		.ascii	"\012Enter amount of euros: \000"
 322      65722061 
 322      6D6F756E 
 322      74206F66 
 322      20657572 
 323 005d 000000   		.space	3
 324              	.LC4:
 325 0060 0A456E74 		.ascii	"\012Enter amount of dollars: \000"
 325      65722061 
 325      6D6F756E 
 325      74206F66 
 325      20646F6C 
 326 007b 00       		.space	1
 327              	.LC5:
 328 007c 596F7527 		.ascii	"You'll get %f dollars. \012\000"
 328      6C6C2067 
 328      65742025 
 328      6620646F 
 328      6C6C6172 
 329 0095 000000   		.text
 330              	.Letext0:
 331              		.file 2 "c:\\program files (x86)\\cypress\\psoc creator\\4.0\\psoc creator\\import\\gnu\\arm\\4.9.
 332              		.file 3 "c:\\program files (x86)\\cypress\\psoc creator\\4.0\\psoc creator\\import\\gnu\\arm\\4.9.
 333              		.file 4 "Generated_Source\\PSoC5/cytypes.h"
 334              		.file 5 "c:\\program files (x86)\\cypress\\psoc creator\\4.0\\psoc creator\\import\\gnu\\arm\\4.9.
 335              		.file 6 "Generated_Source\\PSoC5/core_cm3.h"
ARM GAS  C:\Users\vellu\AppData\Local\Temp\cc6OWcMf.s 			page 9


 336              		.file 7 "Generated_Source\\PSoC5/UART_1.h"