ARM GAS  C:\Users\vellu\AppData\Local\Temp\ccGiEz67.s 			page 1


   1              		.syntax unified
   2              		.cpu cortex-m3
   3              		.fpu softvfp
   4              		.eabi_attribute 20, 1
   5              		.eabi_attribute 21, 1
   6              		.eabi_attribute 23, 3
   7              		.eabi_attribute 24, 1
   8              		.eabi_attribute 25, 1
   9              		.eabi_attribute 26, 1
  10              		.eabi_attribute 30, 1
  11              		.eabi_attribute 34, 1
  12              		.eabi_attribute 18, 4
  13              		.thumb
  14              		.file	"main.c"
  15              		.text
  16              	.Ltext0:
  17              		.cfi_sections	.debug_frame
  18              		.section	.text.whichMonth,"ax",%progbits
  19              		.align	2
  20              		.global	whichMonth
  21              		.thumb
  22              		.thumb_func
  23              		.type	whichMonth, %function
  24              	whichMonth:
  25              	.LFB64:
  26              		.file 1 "main.c"
   1:main.c        **** /* ========================================
   2:main.c        ****  *
   3:main.c        ****  * Copyright YOUR COMPANY, THE YEAR
   4:main.c        ****  * All Rights Reserved
   5:main.c        ****  * UNPUBLISHED, LICENSED SOFTWARE.
   6:main.c        ****  *
   7:main.c        ****  * CONFIDENTIAL AND PROPRIETARY INFORMATION
   8:main.c        ****  * WHICH IS THE PROPERTY OF your company.
   9:main.c        ****  *
  10:main.c        ****  * ========================================
  11:main.c        **** */
  12:main.c        **** #include "project.h"
  13:main.c        **** #include "stdio.h"
  14:main.c        **** #include "string.h"
  15:main.c        **** #include <stdlib.h>
  16:main.c        **** #include <time.h>
  17:main.c        **** 
  18:main.c        **** 
  19:main.c        **** 
  20:main.c        **** struct Months {
  21:main.c        ****     char month[22];
  22:main.c        ****     int monthId;
  23:main.c        ****     
  24:main.c        **** };
  25:main.c        **** 
  26:main.c        **** void whichMonth(struct Months);
  27:main.c        **** 
  28:main.c        **** int main(void)
  29:main.c        **** {
  30:main.c        ****     CyGlobalIntEnable; /* Enable global interrupts. */
  31:main.c        **** 
ARM GAS  C:\Users\vellu\AppData\Local\Temp\ccGiEz67.s 			page 2


  32:main.c        ****     /* Place your initialization/startup code here (e.g. MyInst_Start()) */
  33:main.c        ****     UART_1_Start();
  34:main.c        ****     
  35:main.c        ****     struct Months num = {"",0};
  36:main.c        ****     struct Months num1 = {"",0};
  37:main.c        ****     
  38:main.c        ****     
  39:main.c        ****     printf ("\nEnter information about first month of year: ");
  40:main.c        ****     
  41:main.c        ****     
  42:main.c        ****     do{
  43:main.c        ****         printf ("\nEnter month number: ");
  44:main.c        ****         scanf("%d",&num.monthId);
  45:main.c        ****         if (num.monthId > 0 && num.monthId < 13){
  46:main.c        ****         }
  47:main.c        ****         else {
  48:main.c        ****             printf("\nMonth number must be in range 1-12!");
  49:main.c        ****             num.monthId=0;
  50:main.c        ****         }
  51:main.c        ****     }while(num.monthId <=0 || num.monthId >12);
  52:main.c        ****     printf ("\nEnter name of the month number %d: ",num.monthId);
  53:main.c        ****     
  54:main.c        ****     scanf("%s",num.month);
  55:main.c        ****     
  56:main.c        ****     printf ("\nEnter information about last month of year: ");
  57:main.c        ****     
  58:main.c        ****     do{
  59:main.c        ****         printf ("\nEnter month number: ");
  60:main.c        ****         scanf("%d",&num1.monthId);
  61:main.c        ****         if (num1.monthId > 0 && num1.monthId < 13){
  62:main.c        ****         }
  63:main.c        ****         else{
  64:main.c        ****             printf("\nMonth number must be in range 1-12!");
  65:main.c        ****             num1.monthId=0;
  66:main.c        ****         }
  67:main.c        ****     }while(num1.monthId <=0 || num1.monthId >12);
  68:main.c        ****     printf ("\nEnter name of the month number %d: ",num1.monthId);
  69:main.c        ****     
  70:main.c        ****     scanf("%s",num1.month);
  71:main.c        ****     
  72:main.c        ****     printf("\nYou entered the following months: \n");
  73:main.c        ****     
  74:main.c        ****     whichMonth(num);
  75:main.c        ****     whichMonth(num1);
  76:main.c        ****    
  77:main.c        ****     return 0;
  78:main.c        **** 
  79:main.c        **** }
  80:main.c        **** void whichMonth(struct Months m){
  27              		.loc 1 80 0
  28              		.cfi_startproc
  29              		@ args = 28, pretend = 16, frame = 0
  30              		@ frame_needed = 0, uses_anonymous_args = 0
  31 0000 84B0     		sub	sp, sp, #16
  32              		.cfi_def_cfa_offset 16
  33 0002 08B5     		push	{r3, lr}
  34              		.cfi_def_cfa_offset 24
ARM GAS  C:\Users\vellu\AppData\Local\Temp\ccGiEz67.s 			page 3


  35              		.cfi_offset 3, -24
  36              		.cfi_offset 14, -20
  37 0004 0DF1080E 		add	lr, sp, #8
  38 0008 8EE80F00 		stmia	lr, {r0, r1, r2, r3}
  81:main.c        ****     printf("\n%d . %s",m.monthId,m.month);
  39              		.loc 1 81 0
  40 000c 0548     		ldr	r0, .L3
  41 000e 0899     		ldr	r1, [sp, #32]
  42 0010 7246     		mov	r2, lr
  43 0012 FFF7FEFF 		bl	printf
  44              	.LVL0:
  82:main.c        ****     printf("\n");
  45              		.loc 1 82 0
  46 0016 0A20     		movs	r0, #10
  47 0018 FFF7FEFF 		bl	putchar
  48              	.LVL1:
  83:main.c        ****     
  84:main.c        **** }
  49              		.loc 1 84 0
  50 001c BDE80840 		pop	{r3, lr}
  51              		.cfi_restore 14
  52              		.cfi_restore 3
  53              		.cfi_def_cfa_offset 16
  54 0020 04B0     		add	sp, sp, #16
  55              		.cfi_def_cfa_offset 0
  56 0022 7047     		bx	lr
  57              	.L4:
  58              		.align	2
  59              	.L3:
  60 0024 00000000 		.word	.LC0
  61              		.cfi_endproc
  62              	.LFE64:
  63              		.size	whichMonth, .-whichMonth
  64              		.section	.text.main,"ax",%progbits
  65              		.align	2
  66              		.global	main
  67              		.thumb
  68              		.thumb_func
  69              		.type	main, %function
  70              	main:
  71              	.LFB63:
  29:main.c        ****     CyGlobalIntEnable; /* Enable global interrupts. */
  72              		.loc 1 29 0
  73              		.cfi_startproc
  74              		@ args = 0, pretend = 0, frame = 56
  75              		@ frame_needed = 0, uses_anonymous_args = 0
  76 0000 10B5     		push	{r4, lr}
  77              		.cfi_def_cfa_offset 8
  78              		.cfi_offset 4, -8
  79              		.cfi_offset 14, -4
  80 0002 92B0     		sub	sp, sp, #72
  81              		.cfi_def_cfa_offset 80
  30:main.c        **** 
  82              		.loc 1 30 0
  83              	@ 30 "main.c" 1
  84 0004 62B6     		CPSIE   i
  85              	@ 0 "" 2
ARM GAS  C:\Users\vellu\AppData\Local\Temp\ccGiEz67.s 			page 4


  33:main.c        ****     
  86              		.loc 1 33 0
  87              		.thumb
  88 0006 FFF7FEFF 		bl	UART_1_Start
  89              	.LVL2:
  35:main.c        ****     struct Months num1 = {"",0};
  90              		.loc 1 35 0
  91 000a 0023     		movs	r3, #0
  92 000c 0B93     		str	r3, [sp, #44]
  93 000e 0C93     		str	r3, [sp, #48]
  94 0010 0D93     		str	r3, [sp, #52]
  95 0012 0E93     		str	r3, [sp, #56]
  96 0014 0F93     		str	r3, [sp, #60]
  97 0016 ADF84030 		strh	r3, [sp, #64]	@ movhi
  98 001a 1193     		str	r3, [sp, #68]
  36:main.c        ****     
  99              		.loc 1 36 0
 100 001c 0493     		str	r3, [sp, #16]
 101 001e 0593     		str	r3, [sp, #20]
 102 0020 0693     		str	r3, [sp, #24]
 103 0022 0793     		str	r3, [sp, #28]
 104 0024 0893     		str	r3, [sp, #32]
 105 0026 ADF82430 		strh	r3, [sp, #36]	@ movhi
 106 002a 0A93     		str	r3, [sp, #40]
  39:main.c        ****     
 107              		.loc 1 39 0
 108 002c 2A48     		ldr	r0, .L11
 109 002e FFF7FEFF 		bl	printf
 110              	.LVL3:
 111              	.L7:
  43:main.c        ****         scanf("%d",&num.monthId);
 112              		.loc 1 43 0
 113 0032 2A48     		ldr	r0, .L11+4
 114 0034 FFF7FEFF 		bl	printf
 115              	.LVL4:
  44:main.c        ****         if (num.monthId > 0 && num.monthId < 13){
 116              		.loc 1 44 0
 117 0038 2948     		ldr	r0, .L11+8
 118 003a 11A9     		add	r1, sp, #68
 119 003c FFF7FEFF 		bl	scanf
 120              	.LVL5:
  45:main.c        ****         }
 121              		.loc 1 45 0
 122 0040 119B     		ldr	r3, [sp, #68]
 123 0042 013B     		subs	r3, r3, #1
 124 0044 0B2B     		cmp	r3, #11
 125 0046 04D9     		bls	.L6
  48:main.c        ****             num.monthId=0;
 126              		.loc 1 48 0
 127 0048 2648     		ldr	r0, .L11+12
 128 004a FFF7FEFF 		bl	printf
 129              	.LVL6:
  49:main.c        ****         }
 130              		.loc 1 49 0
 131 004e 0023     		movs	r3, #0
 132 0050 1193     		str	r3, [sp, #68]
 133              	.L6:
ARM GAS  C:\Users\vellu\AppData\Local\Temp\ccGiEz67.s 			page 5


  51:main.c        ****     printf ("\nEnter name of the month number %d: ",num.monthId);
 134              		.loc 1 51 0
 135 0052 1199     		ldr	r1, [sp, #68]
 136 0054 4B1E     		subs	r3, r1, #1
 137 0056 0B2B     		cmp	r3, #11
 138 0058 EBD8     		bhi	.L7
  52:main.c        ****     
 139              		.loc 1 52 0
 140 005a 2348     		ldr	r0, .L11+16
 141 005c FFF7FEFF 		bl	printf
 142              	.LVL7:
  54:main.c        ****     
 143              		.loc 1 54 0
 144 0060 2248     		ldr	r0, .L11+20
 145 0062 0BA9     		add	r1, sp, #44
 146 0064 FFF7FEFF 		bl	scanf
 147              	.LVL8:
  56:main.c        ****     
 148              		.loc 1 56 0
 149 0068 2148     		ldr	r0, .L11+24
 150 006a FFF7FEFF 		bl	printf
 151              	.LVL9:
 152              	.L9:
  59:main.c        ****         scanf("%d",&num1.monthId);
 153              		.loc 1 59 0
 154 006e 1B48     		ldr	r0, .L11+4
 155 0070 FFF7FEFF 		bl	printf
 156              	.LVL10:
  60:main.c        ****         if (num1.monthId > 0 && num1.monthId < 13){
 157              		.loc 1 60 0
 158 0074 1A48     		ldr	r0, .L11+8
 159 0076 0AA9     		add	r1, sp, #40
 160 0078 FFF7FEFF 		bl	scanf
 161              	.LVL11:
  61:main.c        ****         }
 162              		.loc 1 61 0
 163 007c 0A9B     		ldr	r3, [sp, #40]
 164 007e 013B     		subs	r3, r3, #1
 165 0080 0B2B     		cmp	r3, #11
 166 0082 04D9     		bls	.L8
  64:main.c        ****             num1.monthId=0;
 167              		.loc 1 64 0
 168 0084 1748     		ldr	r0, .L11+12
 169 0086 FFF7FEFF 		bl	printf
 170              	.LVL12:
  65:main.c        ****         }
 171              		.loc 1 65 0
 172 008a 0023     		movs	r3, #0
 173 008c 0A93     		str	r3, [sp, #40]
 174              	.L8:
  67:main.c        ****     printf ("\nEnter name of the month number %d: ",num1.monthId);
 175              		.loc 1 67 0
 176 008e 0A99     		ldr	r1, [sp, #40]
 177 0090 4B1E     		subs	r3, r1, #1
 178 0092 0B2B     		cmp	r3, #11
 179 0094 EBD8     		bhi	.L9
  68:main.c        ****     
ARM GAS  C:\Users\vellu\AppData\Local\Temp\ccGiEz67.s 			page 6


 180              		.loc 1 68 0
 181 0096 1448     		ldr	r0, .L11+16
 182 0098 FFF7FEFF 		bl	printf
 183              	.LVL13:
  70:main.c        ****     
 184              		.loc 1 70 0
 185 009c 04AC     		add	r4, sp, #16
 186 009e 1348     		ldr	r0, .L11+20
 187 00a0 2146     		mov	r1, r4
 188 00a2 FFF7FEFF 		bl	scanf
 189              	.LVL14:
  72:main.c        ****     
 190              		.loc 1 72 0
 191 00a6 1348     		ldr	r0, .L11+28
 192 00a8 FFF7FEFF 		bl	puts
 193              	.LVL15:
  74:main.c        ****     whichMonth(num1);
 194              		.loc 1 74 0
 195 00ac 12AB     		add	r3, sp, #72
 196 00ae 13E90700 		ldmdb	r3, {r0, r1, r2}
 197 00b2 8DE80700 		stmia	sp, {r0, r1, r2}
 198 00b6 0BAB     		add	r3, sp, #44
 199 00b8 0FCB     		ldmia	r3, {r0, r1, r2, r3}
 200 00ba FFF7FEFF 		bl	whichMonth
 201              	.LVL16:
  75:main.c        ****    
 202              		.loc 1 75 0
 203 00be 08AB     		add	r3, sp, #32
 204 00c0 93E80700 		ldmia	r3, {r0, r1, r2}
 205 00c4 8DE80700 		stmia	sp, {r0, r1, r2}
 206 00c8 94E80F00 		ldmia	r4, {r0, r1, r2, r3}
 207 00cc FFF7FEFF 		bl	whichMonth
 208              	.LVL17:
  79:main.c        **** void whichMonth(struct Months m){
 209              		.loc 1 79 0
 210 00d0 0020     		movs	r0, #0
 211 00d2 12B0     		add	sp, sp, #72
 212              		.cfi_def_cfa_offset 8
 213              		@ sp needed
 214 00d4 10BD     		pop	{r4, pc}
 215              	.L12:
 216 00d6 00BF     		.align	2
 217              	.L11:
 218 00d8 0C000000 		.word	.LC1
 219 00dc 3C000000 		.word	.LC2
 220 00e0 54000000 		.word	.LC3
 221 00e4 58000000 		.word	.LC4
 222 00e8 80000000 		.word	.LC5
 223 00ec A8000000 		.word	.LC6
 224 00f0 AC000000 		.word	.LC7
 225 00f4 DC000000 		.word	.LC8
 226              		.cfi_endproc
 227              	.LFE63:
 228              		.size	main, .-main
 229              		.section	.text._write,"ax",%progbits
 230              		.align	2
 231              		.global	_write
ARM GAS  C:\Users\vellu\AppData\Local\Temp\ccGiEz67.s 			page 7


 232              		.thumb
 233              		.thumb_func
 234              		.type	_write, %function
 235              	_write:
 236              	.LFB65:
  85:main.c        **** 
  86:main.c        **** int _write(int file, char *ptr, int len)
  87:main.c        **** {
 237              		.loc 1 87 0
 238              		.cfi_startproc
 239              		@ args = 0, pretend = 0, frame = 0
 240              		@ frame_needed = 0, uses_anonymous_args = 0
 241              	.LVL18:
 242 0000 F8B5     		push	{r3, r4, r5, r6, r7, lr}
 243              		.cfi_def_cfa_offset 24
 244              		.cfi_offset 3, -24
 245              		.cfi_offset 4, -20
 246              		.cfi_offset 5, -16
 247              		.cfi_offset 6, -12
 248              		.cfi_offset 7, -8
 249              		.cfi_offset 14, -4
 250 0002 0C46     		mov	r4, r1
 251 0004 1746     		mov	r7, r2
 252              	.LVL19:
  88:main.c        ****     (void)file; /* Parameter is not used, suppress unused argument warning */
  89:main.c        **** 	int n;
  90:main.c        **** 	for(n = 0; n < len; n++) {
 253              		.loc 1 90 0
 254 0006 0025     		movs	r5, #0
 255 0008 0BE0     		b	.L14
 256              	.LVL20:
 257              	.L16:
  91:main.c        ****         if(*ptr == '\n') UART_1_PutChar('\r');
 258              		.loc 1 91 0
 259 000a 2378     		ldrb	r3, [r4]	@ zero_extendqisi2
 260 000c 0A2B     		cmp	r3, #10
 261 000e 02D1     		bne	.L15
 262              		.loc 1 91 0 is_stmt 0 discriminator 1
 263 0010 0D20     		movs	r0, #13
 264 0012 FFF7FEFF 		bl	UART_1_PutChar
 265              	.LVL21:
 266              	.L15:
  92:main.c        **** 		UART_1_PutChar(*ptr++);
 267              		.loc 1 92 0 is_stmt 1 discriminator 2
 268 0016 661C     		adds	r6, r4, #1
 269              	.LVL22:
 270 0018 2078     		ldrb	r0, [r4]	@ zero_extendqisi2
 271 001a FFF7FEFF 		bl	UART_1_PutChar
 272              	.LVL23:
  90:main.c        ****         if(*ptr == '\n') UART_1_PutChar('\r');
 273              		.loc 1 90 0 discriminator 2
 274 001e 0135     		adds	r5, r5, #1
 275              	.LVL24:
 276              		.loc 1 92 0 discriminator 2
 277 0020 3446     		mov	r4, r6
 278              	.LVL25:
 279              	.L14:
ARM GAS  C:\Users\vellu\AppData\Local\Temp\ccGiEz67.s 			page 8


  90:main.c        ****         if(*ptr == '\n') UART_1_PutChar('\r');
 280              		.loc 1 90 0 discriminator 1
 281 0022 BD42     		cmp	r5, r7
 282 0024 F1DB     		blt	.L16
  93:main.c        **** 	}
  94:main.c        **** 	return len;
  95:main.c        **** }
 283              		.loc 1 95 0
 284 0026 3846     		mov	r0, r7
 285 0028 F8BD     		pop	{r3, r4, r5, r6, r7, pc}
 286              		.cfi_endproc
 287              	.LFE65:
 288              		.size	_write, .-_write
 289 002a 00BF     		.section	.text._read,"ax",%progbits
 290              		.align	2
 291              		.global	_read
 292              		.thumb
 293              		.thumb_func
 294              		.type	_read, %function
 295              	_read:
 296              	.LFB66:
  96:main.c        **** 
  97:main.c        **** int _read (int file, char *ptr, int count)
  98:main.c        **** {
 297              		.loc 1 98 0
 298              		.cfi_startproc
 299              		@ args = 0, pretend = 0, frame = 0
 300              		@ frame_needed = 0, uses_anonymous_args = 0
 301              	.LVL26:
 302 0000 F8B5     		push	{r3, r4, r5, r6, r7, lr}
 303              		.cfi_def_cfa_offset 24
 304              		.cfi_offset 3, -24
 305              		.cfi_offset 4, -20
 306              		.cfi_offset 5, -16
 307              		.cfi_offset 6, -12
 308              		.cfi_offset 7, -8
 309              		.cfi_offset 14, -4
 310 0002 0F46     		mov	r7, r1
 311 0004 1446     		mov	r4, r2
 312              	.LVL27:
  99:main.c        ****     int chs = 0;
 313              		.loc 1 99 0
 314 0006 0026     		movs	r6, #0
 100:main.c        ****     char ch;
 101:main.c        ****  
 102:main.c        ****     (void)file; /* Parameter is not used, suppress unused argument warning */
 103:main.c        ****     while(count > 0) {
 315              		.loc 1 103 0
 316 0008 12E0     		b	.L20
 317              	.LVL28:
 318              	.L23:
 104:main.c        ****         ch = UART_1_GetChar();
 319              		.loc 1 104 0
 320 000a FFF7FEFF 		bl	UART_1_GetChar
 321              	.LVL29:
 105:main.c        ****         if(ch != 0) {
 322              		.loc 1 105 0
ARM GAS  C:\Users\vellu\AppData\Local\Temp\ccGiEz67.s 			page 9


 323 000e 0546     		mov	r5, r0
 324 0010 70B1     		cbz	r0, .L20
 106:main.c        ****             UART_1_PutChar(ch);
 325              		.loc 1 106 0
 326 0012 FFF7FEFF 		bl	UART_1_PutChar
 327              	.LVL30:
 107:main.c        ****             chs++;
 328              		.loc 1 107 0
 329 0016 0136     		adds	r6, r6, #1
 330              	.LVL31:
 108:main.c        ****             if(ch == '\r') {
 331              		.loc 1 108 0
 332 0018 0D2D     		cmp	r5, #13
 333 001a 03D1     		bne	.L21
 334              	.LVL32:
 109:main.c        ****                 ch = '\n';
 110:main.c        ****                 UART_1_PutChar(ch);
 335              		.loc 1 110 0
 336 001c 0A20     		movs	r0, #10
 337 001e FFF7FEFF 		bl	UART_1_PutChar
 338              	.LVL33:
 109:main.c        ****                 ch = '\n';
 339              		.loc 1 109 0
 340 0022 0A25     		movs	r5, #10
 341              	.LVL34:
 342              	.L21:
 111:main.c        ****             }
 112:main.c        ****             *ptr++ = ch;
 343              		.loc 1 112 0
 344 0024 7B1C     		adds	r3, r7, #1
 345              	.LVL35:
 346 0026 3D70     		strb	r5, [r7]
 113:main.c        ****             count--;
 347              		.loc 1 113 0
 348 0028 013C     		subs	r4, r4, #1
 349              	.LVL36:
 114:main.c        ****             if(ch == '\n') break;
 350              		.loc 1 114 0
 351 002a 0A2D     		cmp	r5, #10
 352 002c 02D0     		beq	.L22
 112:main.c        ****             count--;
 353              		.loc 1 112 0
 354 002e 1F46     		mov	r7, r3
 355              	.LVL37:
 356              	.L20:
 103:main.c        ****         ch = UART_1_GetChar();
 357              		.loc 1 103 0
 358 0030 002C     		cmp	r4, #0
 359 0032 EADC     		bgt	.L23
 360              	.LVL38:
 361              	.L22:
 115:main.c        ****         }
 116:main.c        ****     }
 117:main.c        ****     return chs;
 118:main.c        **** }
 362              		.loc 1 118 0
 363 0034 3046     		mov	r0, r6
ARM GAS  C:\Users\vellu\AppData\Local\Temp\ccGiEz67.s 			page 10


 364 0036 F8BD     		pop	{r3, r4, r5, r6, r7, pc}
 365              		.cfi_endproc
 366              	.LFE66:
 367              		.size	_read, .-_read
 368              		.section	.rodata.str1.4,"aMS",%progbits,1
 369              		.align	2
 370              	.LC0:
 371 0000 0A256420 		.ascii	"\012%d . %s\000"
 371      2E202573 
 371      00
 372 0009 000000   		.space	3
 373              	.LC1:
 374 000c 0A456E74 		.ascii	"\012Enter information about first month of year: \000"
 374      65722069 
 374      6E666F72 
 374      6D617469 
 374      6F6E2061 
 375 003b 00       		.space	1
 376              	.LC2:
 377 003c 0A456E74 		.ascii	"\012Enter month number: \000"
 377      6572206D 
 377      6F6E7468 
 377      206E756D 
 377      6265723A 
 378 0052 0000     		.space	2
 379              	.LC3:
 380 0054 256400   		.ascii	"%d\000"
 381 0057 00       		.space	1
 382              	.LC4:
 383 0058 0A4D6F6E 		.ascii	"\012Month number must be in range 1-12!\000"
 383      7468206E 
 383      756D6265 
 383      72206D75 
 383      73742062 
 384 007d 000000   		.space	3
 385              	.LC5:
 386 0080 0A456E74 		.ascii	"\012Enter name of the month number %d: \000"
 386      6572206E 
 386      616D6520 
 386      6F662074 
 386      6865206D 
 387 00a5 000000   		.space	3
 388              	.LC6:
 389 00a8 257300   		.ascii	"%s\000"
 390 00ab 00       		.space	1
 391              	.LC7:
 392 00ac 0A456E74 		.ascii	"\012Enter information about last month of year: \000"
 392      65722069 
 392      6E666F72 
 392      6D617469 
 392      6F6E2061 
 393 00da 0000     		.space	2
 394              	.LC8:
 395 00dc 0A596F75 		.ascii	"\012You entered the following months: \000"
 395      20656E74 
 395      65726564 
 395      20746865 
ARM GAS  C:\Users\vellu\AppData\Local\Temp\ccGiEz67.s 			page 11


 395      20666F6C 
 396              		.text
 397              	.Letext0:
 398              		.file 2 "c:\\program files (x86)\\cypress\\psoc creator\\4.0\\psoc creator\\import\\gnu\\arm\\4.9.
 399              		.file 3 "c:\\program files (x86)\\cypress\\psoc creator\\4.0\\psoc creator\\import\\gnu\\arm\\4.9.
 400              		.file 4 "Generated_Source\\PSoC5/cytypes.h"
 401              		.file 5 "c:\\program files (x86)\\cypress\\psoc creator\\4.0\\psoc creator\\import\\gnu\\arm\\4.9.
 402              		.file 6 "<built-in>"
 403              		.file 7 "Generated_Source\\PSoC5/core_cm3.h"
 404              		.file 8 "Generated_Source\\PSoC5/UART_1.h"