ARM GAS  C:\Users\vellu\AppData\Local\Temp\ccllKuHd.s 			page 1


   1              		.syntax unified
   2              		.cpu cortex-m3
   3              		.fpu softvfp
   4              		.eabi_attribute 20, 1
   5              		.eabi_attribute 21, 1
   6              		.eabi_attribute 23, 3
   7              		.eabi_attribute 24, 1
   8              		.eabi_attribute 25, 1
   9              		.eabi_attribute 26, 1
  10              		.eabi_attribute 30, 1
  11              		.eabi_attribute 34, 1
  12              		.eabi_attribute 18, 4
  13              		.thumb
  14              		.file	"main.c"
  15              		.text
  16              	.Ltext0:
  17              		.cfi_sections	.debug_frame
  18              		.section	.text.main,"ax",%progbits
  19              		.align	2
  20              		.global	main
  21              		.thumb
  22              		.thumb_func
  23              		.type	main, %function
  24              	main:
  25              	.LFB63:
  26              		.file 1 "main.c"
   1:main.c        **** /* ========================================
   2:main.c        ****  *
   3:main.c        ****  * Copyright YOUR COMPANY, THE YEAR
   4:main.c        ****  * All Rights Reserved
   5:main.c        ****  * UNPUBLISHED, LICENSED SOFTWARE.
   6:main.c        ****  *
   7:main.c        ****  * CONFIDENTIAL AND PROPRIETARY INFORMATION
   8:main.c        ****  * WHICH IS THE PROPERTY OF your company.
   9:main.c        ****  *
  10:main.c        ****  * ========================================
  11:main.c        **** */
  12:main.c        **** #include "project.h"
  13:main.c        **** #include "stdio.h"
  14:main.c        **** #define Array_Size 10
  15:main.c        **** int main(void)
  16:main.c        **** {
  27              		.loc 1 16 0
  28              		.cfi_startproc
  29              		@ args = 0, pretend = 0, frame = 48
  30              		@ frame_needed = 0, uses_anonymous_args = 0
  31 0000 10B5     		push	{r4, lr}
  32              		.cfi_def_cfa_offset 8
  33              		.cfi_offset 4, -8
  34              		.cfi_offset 14, -4
  35 0002 8CB0     		sub	sp, sp, #48
  36              		.cfi_def_cfa_offset 56
  17:main.c        ****     CyGlobalIntEnable; /* Enable global interrupts. */
  37              		.loc 1 17 0
  38              	@ 17 "main.c" 1
  39 0004 62B6     		CPSIE   i
  40              	@ 0 "" 2
ARM GAS  C:\Users\vellu\AppData\Local\Temp\ccllKuHd.s 			page 2


  18:main.c        **** 
  19:main.c        ****     /* Place your initialization/startup code here (e.g. MyInst_Start()) */
  20:main.c        ****     UART_1_Start();
  41              		.loc 1 20 0
  42              		.thumb
  43 0006 FFF7FEFF 		bl	UART_1_Start
  44              	.LVL0:
  21:main.c        ****     
  22:main.c        ****     int array[Array_Size]={0};
  45              		.loc 1 22 0
  46 000a 0024     		movs	r4, #0
  47 000c 0294     		str	r4, [sp, #8]
  48 000e 0394     		str	r4, [sp, #12]
  49 0010 0494     		str	r4, [sp, #16]
  50 0012 0594     		str	r4, [sp, #20]
  51 0014 0694     		str	r4, [sp, #24]
  52 0016 0794     		str	r4, [sp, #28]
  53 0018 0894     		str	r4, [sp, #32]
  54 001a 0994     		str	r4, [sp, #36]
  55 001c 0A94     		str	r4, [sp, #40]
  56 001e 0B94     		str	r4, [sp, #44]
  57              	.LVL1:
  23:main.c        ****     int i=0;
  24:main.c        ****     int positiveNum=0;
  58              		.loc 1 24 0
  59 0020 0194     		str	r4, [sp, #4]
  60              	.LVL2:
  25:main.c        ****     int sum=0;
  26:main.c        ****     
  27:main.c        ****     for(i=0;i<Array_Size;i++)
  61              		.loc 1 27 0
  62 0022 18E0     		b	.L2
  63              	.LVL3:
  64              	.L5:
  28:main.c        ****     { 
  29:main.c        ****         printf("\nEnter value for element[%d]: ",i);
  65              		.loc 1 29 0
  66 0024 1648     		ldr	r0, .L9
  67 0026 2146     		mov	r1, r4
  68 0028 FFF7FEFF 		bl	printf
  69              	.LVL4:
  30:main.c        ****         scanf("%d",&positiveNum);
  70              		.loc 1 30 0
  71 002c 1548     		ldr	r0, .L9+4
  72 002e 01A9     		add	r1, sp, #4
  73 0030 FFF7FEFF 		bl	scanf
  74              	.LVL5:
  31:main.c        ****         if (!(positiveNum>=0))
  75              		.loc 1 31 0
  76 0034 019A     		ldr	r2, [sp, #4]
  77 0036 002A     		cmp	r2, #0
  78 0038 04DA     		bge	.L3
  32:main.c        ****         {  
  33:main.c        ****             printf("\nValue must be positive!\a\n");
  79              		.loc 1 33 0
  80 003a 1348     		ldr	r0, .L9+8
  81 003c FFF7FEFF 		bl	puts
ARM GAS  C:\Users\vellu\AppData\Local\Temp\ccllKuHd.s 			page 3


  82              	.LVL6:
  34:main.c        ****             i--;
  83              		.loc 1 34 0
  84 0040 013C     		subs	r4, r4, #1
  85              	.LVL7:
  86 0042 07E0     		b	.L4
  87              	.L3:
  35:main.c        ****         }
  36:main.c        ****         else
  37:main.c        ****         {
  38:main.c        ****             array[i]+=positiveNum;
  88              		.loc 1 38 0
  89 0044 0CAB     		add	r3, sp, #48
  90 0046 03EB8401 		add	r1, r3, r4, lsl #2
  91 004a 51F8283C 		ldr	r3, [r1, #-40]
  92 004e 1344     		add	r3, r3, r2
  93 0050 41F8283C 		str	r3, [r1, #-40]
  94              	.L4:
  27:main.c        ****     { 
  95              		.loc 1 27 0 discriminator 2
  96 0054 0134     		adds	r4, r4, #1
  97              	.LVL8:
  98              	.L2:
  27:main.c        ****     { 
  99              		.loc 1 27 0 is_stmt 0 discriminator 1
 100 0056 092C     		cmp	r4, #9
 101 0058 E4DD     		ble	.L5
 102 005a 0021     		movs	r1, #0
 103 005c 0B46     		mov	r3, r1
 104 005e 06E0     		b	.L6
 105              	.LVL9:
 106              	.L7:
  39:main.c        ****             
  40:main.c        ****         }
  41:main.c        ****     }
  42:main.c        ****     for(i=0;i<Array_Size;i++)
  43:main.c        ****     {
  44:main.c        ****     sum=sum+array[i];
 107              		.loc 1 44 0 is_stmt 1 discriminator 3
 108 0060 0CAA     		add	r2, sp, #48
 109 0062 02EB8302 		add	r2, r2, r3, lsl #2
 110 0066 52F8282C 		ldr	r2, [r2, #-40]
 111 006a 1144     		add	r1, r1, r2
 112              	.LVL10:
  42:main.c        ****     {
 113              		.loc 1 42 0 discriminator 3
 114 006c 0133     		adds	r3, r3, #1
 115              	.LVL11:
 116              	.L6:
  42:main.c        ****     {
 117              		.loc 1 42 0 is_stmt 0 discriminator 1
 118 006e 092B     		cmp	r3, #9
 119 0070 F6DD     		ble	.L7
  45:main.c        ****     }
  46:main.c        ****     printf("The sum of 10 numbers in your array is:%d \n",sum);
 120              		.loc 1 46 0 is_stmt 1
 121 0072 0648     		ldr	r0, .L9+12
ARM GAS  C:\Users\vellu\AppData\Local\Temp\ccllKuHd.s 			page 4


 122 0074 FFF7FEFF 		bl	printf
 123              	.LVL12:
  47:main.c        ****     return 0;
  48:main.c        ****     
  49:main.c        **** }
 124              		.loc 1 49 0
 125 0078 0020     		movs	r0, #0
 126 007a 0CB0     		add	sp, sp, #48
 127              		.cfi_def_cfa_offset 8
 128              		@ sp needed
 129 007c 10BD     		pop	{r4, pc}
 130              	.L10:
 131 007e 00BF     		.align	2
 132              	.L9:
 133 0080 00000000 		.word	.LC0
 134 0084 20000000 		.word	.LC1
 135 0088 24000000 		.word	.LC2
 136 008c 40000000 		.word	.LC3
 137              		.cfi_endproc
 138              	.LFE63:
 139              		.size	main, .-main
 140              		.section	.text._write,"ax",%progbits
 141              		.align	2
 142              		.global	_write
 143              		.thumb
 144              		.thumb_func
 145              		.type	_write, %function
 146              	_write:
 147              	.LFB64:
  50:main.c        **** int _write(int file, char *ptr, int len)
  51:main.c        **** {
 148              		.loc 1 51 0
 149              		.cfi_startproc
 150              		@ args = 0, pretend = 0, frame = 0
 151              		@ frame_needed = 0, uses_anonymous_args = 0
 152              	.LVL13:
 153 0000 F8B5     		push	{r3, r4, r5, r6, r7, lr}
 154              		.cfi_def_cfa_offset 24
 155              		.cfi_offset 3, -24
 156              		.cfi_offset 4, -20
 157              		.cfi_offset 5, -16
 158              		.cfi_offset 6, -12
 159              		.cfi_offset 7, -8
 160              		.cfi_offset 14, -4
 161 0002 0C46     		mov	r4, r1
 162 0004 1746     		mov	r7, r2
 163              	.LVL14:
  52:main.c        ****     (void)file; /* Parameter is not used, suppress unused argument warning */
  53:main.c        **** 	int n;
  54:main.c        **** 	for(n = 0; n < len; n++) {
 164              		.loc 1 54 0
 165 0006 0025     		movs	r5, #0
 166 0008 0BE0     		b	.L12
 167              	.LVL15:
 168              	.L14:
  55:main.c        ****         if(*ptr == '\n') UART_1_PutChar('\r');
 169              		.loc 1 55 0
ARM GAS  C:\Users\vellu\AppData\Local\Temp\ccllKuHd.s 			page 5


 170 000a 2378     		ldrb	r3, [r4]	@ zero_extendqisi2
 171 000c 0A2B     		cmp	r3, #10
 172 000e 02D1     		bne	.L13
 173              		.loc 1 55 0 is_stmt 0 discriminator 1
 174 0010 0D20     		movs	r0, #13
 175 0012 FFF7FEFF 		bl	UART_1_PutChar
 176              	.LVL16:
 177              	.L13:
  56:main.c        **** 		UART_1_PutChar(*ptr++);
 178              		.loc 1 56 0 is_stmt 1 discriminator 2
 179 0016 661C     		adds	r6, r4, #1
 180              	.LVL17:
 181 0018 2078     		ldrb	r0, [r4]	@ zero_extendqisi2
 182 001a FFF7FEFF 		bl	UART_1_PutChar
 183              	.LVL18:
  54:main.c        ****         if(*ptr == '\n') UART_1_PutChar('\r');
 184              		.loc 1 54 0 discriminator 2
 185 001e 0135     		adds	r5, r5, #1
 186              	.LVL19:
 187              		.loc 1 56 0 discriminator 2
 188 0020 3446     		mov	r4, r6
 189              	.LVL20:
 190              	.L12:
  54:main.c        ****         if(*ptr == '\n') UART_1_PutChar('\r');
 191              		.loc 1 54 0 discriminator 1
 192 0022 BD42     		cmp	r5, r7
 193 0024 F1DB     		blt	.L14
  57:main.c        **** 	}
  58:main.c        **** 	return len;
  59:main.c        **** }
 194              		.loc 1 59 0
 195 0026 3846     		mov	r0, r7
 196 0028 F8BD     		pop	{r3, r4, r5, r6, r7, pc}
 197              		.cfi_endproc
 198              	.LFE64:
 199              		.size	_write, .-_write
 200 002a 00BF     		.section	.text._read,"ax",%progbits
 201              		.align	2
 202              		.global	_read
 203              		.thumb
 204              		.thumb_func
 205              		.type	_read, %function
 206              	_read:
 207              	.LFB65:
  60:main.c        **** 
  61:main.c        **** int _read (int file, char *ptr, int count)
  62:main.c        **** {
 208              		.loc 1 62 0
 209              		.cfi_startproc
 210              		@ args = 0, pretend = 0, frame = 0
 211              		@ frame_needed = 0, uses_anonymous_args = 0
 212              	.LVL21:
 213 0000 F8B5     		push	{r3, r4, r5, r6, r7, lr}
 214              		.cfi_def_cfa_offset 24
 215              		.cfi_offset 3, -24
 216              		.cfi_offset 4, -20
 217              		.cfi_offset 5, -16
ARM GAS  C:\Users\vellu\AppData\Local\Temp\ccllKuHd.s 			page 6


 218              		.cfi_offset 6, -12
 219              		.cfi_offset 7, -8
 220              		.cfi_offset 14, -4
 221 0002 0F46     		mov	r7, r1
 222 0004 1446     		mov	r4, r2
 223              	.LVL22:
  63:main.c        ****     int chs = 0;
 224              		.loc 1 63 0
 225 0006 0026     		movs	r6, #0
  64:main.c        ****     char ch;
  65:main.c        ****  
  66:main.c        ****     (void)file; /* Parameter is not used, suppress unused argument warning */
  67:main.c        ****     while(count > 0) {
 226              		.loc 1 67 0
 227 0008 12E0     		b	.L18
 228              	.LVL23:
 229              	.L21:
  68:main.c        ****         ch = UART_1_GetChar();
 230              		.loc 1 68 0
 231 000a FFF7FEFF 		bl	UART_1_GetChar
 232              	.LVL24:
  69:main.c        ****         if(ch != 0) {
 233              		.loc 1 69 0
 234 000e 0546     		mov	r5, r0
 235 0010 70B1     		cbz	r0, .L18
  70:main.c        ****             UART_1_PutChar(ch);
 236              		.loc 1 70 0
 237 0012 FFF7FEFF 		bl	UART_1_PutChar
 238              	.LVL25:
  71:main.c        ****             chs++;
 239              		.loc 1 71 0
 240 0016 0136     		adds	r6, r6, #1
 241              	.LVL26:
  72:main.c        ****             if(ch == '\r') {
 242              		.loc 1 72 0
 243 0018 0D2D     		cmp	r5, #13
 244 001a 03D1     		bne	.L19
 245              	.LVL27:
  73:main.c        ****                 ch = '\n';
  74:main.c        ****                 UART_1_PutChar(ch);
 246              		.loc 1 74 0
 247 001c 0A20     		movs	r0, #10
 248 001e FFF7FEFF 		bl	UART_1_PutChar
 249              	.LVL28:
  73:main.c        ****                 ch = '\n';
 250              		.loc 1 73 0
 251 0022 0A25     		movs	r5, #10
 252              	.LVL29:
 253              	.L19:
  75:main.c        ****             }
  76:main.c        ****             *ptr++ = ch;
 254              		.loc 1 76 0
 255 0024 7B1C     		adds	r3, r7, #1
 256              	.LVL30:
 257 0026 3D70     		strb	r5, [r7]
  77:main.c        ****             count--;
 258              		.loc 1 77 0
ARM GAS  C:\Users\vellu\AppData\Local\Temp\ccllKuHd.s 			page 7


 259 0028 013C     		subs	r4, r4, #1
 260              	.LVL31:
  78:main.c        ****             if(ch == '\n') break;
 261              		.loc 1 78 0
 262 002a 0A2D     		cmp	r5, #10
 263 002c 02D0     		beq	.L20
  76:main.c        ****             count--;
 264              		.loc 1 76 0
 265 002e 1F46     		mov	r7, r3
 266              	.LVL32:
 267              	.L18:
  67:main.c        ****         ch = UART_1_GetChar();
 268              		.loc 1 67 0
 269 0030 002C     		cmp	r4, #0
 270 0032 EADC     		bgt	.L21
 271              	.LVL33:
 272              	.L20:
  79:main.c        ****         }
  80:main.c        ****     }
  81:main.c        ****     return chs;
  82:main.c        **** }
 273              		.loc 1 82 0
 274 0034 3046     		mov	r0, r6
 275 0036 F8BD     		pop	{r3, r4, r5, r6, r7, pc}
 276              		.cfi_endproc
 277              	.LFE65:
 278              		.size	_read, .-_read
 279              		.section	.rodata.str1.4,"aMS",%progbits,1
 280              		.align	2
 281              	.LC0:
 282 0000 0A456E74 		.ascii	"\012Enter value for element[%d]: \000"
 282      65722076 
 282      616C7565 
 282      20666F72 
 282      20656C65 
 283 001f 00       		.space	1
 284              	.LC1:
 285 0020 256400   		.ascii	"%d\000"
 286 0023 00       		.space	1
 287              	.LC2:
 288 0024 0A56616C 		.ascii	"\012Value must be positive!\007\000"
 288      7565206D 
 288      75737420 
 288      62652070 
 288      6F736974 
 289 003e 0000     		.space	2
 290              	.LC3:
 291 0040 54686520 		.ascii	"The sum of 10 numbers in your array is:%d \012\000"
 291      73756D20 
 291      6F662031 
 291      30206E75 
 291      6D626572 
 292              		.text
 293              	.Letext0:
 294              		.file 2 "c:\\program files (x86)\\cypress\\psoc creator\\4.0\\psoc creator\\import\\gnu\\arm\\4.9.
 295              		.file 3 "c:\\program files (x86)\\cypress\\psoc creator\\4.0\\psoc creator\\import\\gnu\\arm\\4.9.
 296              		.file 4 "Generated_Source\\PSoC5/cytypes.h"
ARM GAS  C:\Users\vellu\AppData\Local\Temp\ccllKuHd.s 			page 8


 297              		.file 5 "c:\\program files (x86)\\cypress\\psoc creator\\4.0\\psoc creator\\import\\gnu\\arm\\4.9.
 298              		.file 6 "Generated_Source\\PSoC5/core_cm3.h"
 299              		.file 7 "Generated_Source\\PSoC5/UART_1.h"
 300              		.file 8 "<built-in>"