ARM GAS  C:\Users\vellu\AppData\Local\Temp\ccwq67Db.s 			page 1


   1              		.syntax unified
   2              		.cpu cortex-m3
   3              		.fpu softvfp
   4              		.eabi_attribute 20, 1
   5              		.eabi_attribute 21, 1
   6              		.eabi_attribute 23, 3
   7              		.eabi_attribute 24, 1
   8              		.eabi_attribute 25, 1
   9              		.eabi_attribute 26, 1
  10              		.eabi_attribute 30, 1
  11              		.eabi_attribute 34, 1
  12              		.eabi_attribute 18, 4
  13              		.thumb
  14              		.file	"main.c"
  15              		.text
  16              	.Ltext0:
  17              		.cfi_sections	.debug_frame
  18              		.section	.text.numSolver,"ax",%progbits
  19              		.align	2
  20              		.global	numSolver
  21              		.thumb
  22              		.thumb_func
  23              		.type	numSolver, %function
  24              	numSolver:
  25              	.LFB64:
  26              		.file 1 "main.c"
   1:main.c        **** /* ========================================
   2:main.c        ****  *
   3:main.c        ****  * Copyright YOUR COMPANY, THE YEAR
   4:main.c        ****  * All Rights Reserved
   5:main.c        ****  * UNPUBLISHED, LICENSED SOFTWARE.
   6:main.c        ****  *
   7:main.c        ****  * CONFIDENTIAL AND PROPRIETARY INFORMATION
   8:main.c        ****  * WHICH IS THE PROPERTY OF your company.
   9:main.c        ****  *
  10:main.c        ****  * ========================================
  11:main.c        **** */
  12:main.c        **** #include "project.h"
  13:main.c        **** #include "stdio.h"
  14:main.c        **** #include <stdlib.h>
  15:main.c        **** #include <time.h>
  16:main.c        **** #include <stdbool.h>
  17:main.c        **** 
  18:main.c        **** int numSolver (int num1, int num2);
  19:main.c        **** 
  20:main.c        **** int main(void)
  21:main.c        **** {
  22:main.c        ****     CyGlobalIntEnable; /* Enable global interrupts. */
  23:main.c        **** 
  24:main.c        ****     /* Place your initialization/startup code here (e.g. MyInst_Start()) */
  25:main.c        ****     UART_1_Start();
  26:main.c        ****     
  27:main.c        ****     int num1 = 10;
  28:main.c        ****     int num2 = 20;
  29:main.c        ****     
  30:main.c        ****     int number=numSolver (num1,num2);
  31:main.c        ****     
ARM GAS  C:\Users\vellu\AppData\Local\Temp\ccwq67Db.s 			page 2


  32:main.c        ****     num1 = 0;
  33:main.c        ****     num2 = 5;
  34:main.c        ****     
  35:main.c        ****     int multiplyer=numSolver (num1,num2);
  36:main.c        ****     
  37:main.c        ****     printf("%d multiplied by %d is: \n",number,multiplyer);
  38:main.c        ****     
  39:main.c        ****     int numbersEqual = number*multiplyer;
  40:main.c        ****     
  41:main.c        ****     printf("%d\n",numbersEqual);
  42:main.c        ****     
  43:main.c        ****     return 0;
  44:main.c        **** }
  45:main.c        **** int numSolver (int num1, int num2)
  46:main.c        **** {
  27              		.loc 1 46 0
  28              		.cfi_startproc
  29              		@ args = 0, pretend = 0, frame = 8
  30              		@ frame_needed = 0, uses_anonymous_args = 0
  31              	.LVL0:
  32 0000 70B5     		push	{r4, r5, r6, lr}
  33              		.cfi_def_cfa_offset 16
  34              		.cfi_offset 4, -16
  35              		.cfi_offset 5, -12
  36              		.cfi_offset 6, -8
  37              		.cfi_offset 14, -4
  38 0002 82B0     		sub	sp, sp, #8
  39              		.cfi_def_cfa_offset 24
  40 0004 0446     		mov	r4, r0
  41 0006 0D46     		mov	r5, r1
  42              	.LVL1:
  47:main.c        ****     int result = 0;
  43              		.loc 1 47 0
  44 0008 0026     		movs	r6, #0
  45              	.LVL2:
  46              	.L4:
  48:main.c        ****     int inputNum1,inputNum2 = 0;
  49:main.c        ****     
  50:main.c        ****     do{
  51:main.c        ****         printf("Enter a number [%d-%d]: \n",num1,num2);
  47              		.loc 1 51 0
  48 000a 0D48     		ldr	r0, .L7
  49 000c 2146     		mov	r1, r4
  50 000e 2A46     		mov	r2, r5
  51 0010 FFF7FEFF 		bl	printf
  52              	.LVL3:
  52:main.c        ****         scanf("%d",&inputNum1);
  53              		.loc 1 52 0
  54 0014 0B48     		ldr	r0, .L7+4
  55 0016 01A9     		add	r1, sp, #4
  56 0018 FFF7FEFF 		bl	scanf
  57              	.LVL4:
  53:main.c        ****         if (inputNum1 >= num1 && inputNum2 <= num2)
  58              		.loc 1 53 0
  59 001c 019B     		ldr	r3, [sp, #4]
  60 001e A342     		cmp	r3, r4
  61 0020 01DB     		blt	.L2
ARM GAS  C:\Users\vellu\AppData\Local\Temp\ccwq67Db.s 			page 3


  62              		.loc 1 53 0 is_stmt 0 discriminator 1
  63 0022 002D     		cmp	r5, #0
  64 0024 05DA     		bge	.L5
  65              	.L2:
  54:main.c        ****         {
  55:main.c        ****             result = inputNum1; 
  56:main.c        ****         }
  57:main.c        ****         else
  58:main.c        ****         {
  59:main.c        ****             printf("Invalid value! number must be between %d and %d.\n",num1,num2); 
  66              		.loc 1 59 0 is_stmt 1
  67 0026 0848     		ldr	r0, .L7+8
  68 0028 2146     		mov	r1, r4
  69 002a 2A46     		mov	r2, r5
  70 002c FFF7FEFF 		bl	printf
  71              	.LVL5:
  72 0030 00E0     		b	.L3
  73              	.L5:
  55:main.c        ****         }
  74              		.loc 1 55 0
  75 0032 1E46     		mov	r6, r3
  76              	.LVL6:
  77              	.L3:
  60:main.c        ****         }
  61:main.c        ****     }while (result == 0);
  78              		.loc 1 61 0
  79 0034 002E     		cmp	r6, #0
  80 0036 E8D0     		beq	.L4
  62:main.c        ****     
  63:main.c        ****     
  64:main.c        ****     return result;
  65:main.c        ****     
  66:main.c        ****     }
  81              		.loc 1 66 0
  82 0038 3046     		mov	r0, r6
  83 003a 02B0     		add	sp, sp, #8
  84              		.cfi_def_cfa_offset 16
  85              		@ sp needed
  86 003c 70BD     		pop	{r4, r5, r6, pc}
  87              	.LVL7:
  88              	.L8:
  89 003e 00BF     		.align	2
  90              	.L7:
  91 0040 00000000 		.word	.LC0
  92 0044 1C000000 		.word	.LC1
  93 0048 20000000 		.word	.LC2
  94              		.cfi_endproc
  95              	.LFE64:
  96              		.size	numSolver, .-numSolver
  97              		.section	.text.main,"ax",%progbits
  98              		.align	2
  99              		.global	main
 100              		.thumb
 101              		.thumb_func
 102              		.type	main, %function
 103              	main:
 104              	.LFB63:
ARM GAS  C:\Users\vellu\AppData\Local\Temp\ccwq67Db.s 			page 4


  21:main.c        ****     CyGlobalIntEnable; /* Enable global interrupts. */
 105              		.loc 1 21 0
 106              		.cfi_startproc
 107              		@ args = 0, pretend = 0, frame = 0
 108              		@ frame_needed = 0, uses_anonymous_args = 0
 109 0000 38B5     		push	{r3, r4, r5, lr}
 110              		.cfi_def_cfa_offset 16
 111              		.cfi_offset 3, -16
 112              		.cfi_offset 4, -12
 113              		.cfi_offset 5, -8
 114              		.cfi_offset 14, -4
  22:main.c        **** 
 115              		.loc 1 22 0
 116              	@ 22 "main.c" 1
 117 0002 62B6     		CPSIE   i
 118              	@ 0 "" 2
  25:main.c        ****     
 119              		.loc 1 25 0
 120              		.thumb
 121 0004 FFF7FEFF 		bl	UART_1_Start
 122              	.LVL8:
  30:main.c        ****     
 123              		.loc 1 30 0
 124 0008 0A20     		movs	r0, #10
 125 000a 1421     		movs	r1, #20
 126 000c FFF7FEFF 		bl	numSolver
 127              	.LVL9:
 128 0010 0446     		mov	r4, r0
 129              	.LVL10:
  35:main.c        ****     
 130              		.loc 1 35 0
 131 0012 0020     		movs	r0, #0
 132              	.LVL11:
 133 0014 0521     		movs	r1, #5
 134 0016 FFF7FEFF 		bl	numSolver
 135              	.LVL12:
 136 001a 0546     		mov	r5, r0
 137              	.LVL13:
  37:main.c        ****     
 138              		.loc 1 37 0
 139 001c 0548     		ldr	r0, .L11
 140              	.LVL14:
 141 001e 2146     		mov	r1, r4
 142 0020 2A46     		mov	r2, r5
 143 0022 FFF7FEFF 		bl	printf
 144              	.LVL15:
  41:main.c        ****     
 145              		.loc 1 41 0
 146 0026 0448     		ldr	r0, .L11+4
 147 0028 05FB04F1 		mul	r1, r5, r4
 148              	.LVL16:
 149 002c FFF7FEFF 		bl	printf
 150              	.LVL17:
  44:main.c        **** int numSolver (int num1, int num2)
 151              		.loc 1 44 0
 152 0030 0020     		movs	r0, #0
 153 0032 38BD     		pop	{r3, r4, r5, pc}
ARM GAS  C:\Users\vellu\AppData\Local\Temp\ccwq67Db.s 			page 5


 154              	.LVL18:
 155              	.L12:
 156              		.align	2
 157              	.L11:
 158 0034 54000000 		.word	.LC3
 159 0038 70000000 		.word	.LC4
 160              		.cfi_endproc
 161              	.LFE63:
 162              		.size	main, .-main
 163              		.section	.text._write,"ax",%progbits
 164              		.align	2
 165              		.global	_write
 166              		.thumb
 167              		.thumb_func
 168              		.type	_write, %function
 169              	_write:
 170              	.LFB65:
  67:main.c        **** 
  68:main.c        **** int _write(int file, char *ptr, int len)
  69:main.c        **** {
 171              		.loc 1 69 0
 172              		.cfi_startproc
 173              		@ args = 0, pretend = 0, frame = 0
 174              		@ frame_needed = 0, uses_anonymous_args = 0
 175              	.LVL19:
 176 0000 F8B5     		push	{r3, r4, r5, r6, r7, lr}
 177              		.cfi_def_cfa_offset 24
 178              		.cfi_offset 3, -24
 179              		.cfi_offset 4, -20
 180              		.cfi_offset 5, -16
 181              		.cfi_offset 6, -12
 182              		.cfi_offset 7, -8
 183              		.cfi_offset 14, -4
 184 0002 0C46     		mov	r4, r1
 185 0004 1746     		mov	r7, r2
 186              	.LVL20:
  70:main.c        ****     (void)file; /* Parameter is not used, suppress unused argument warning */
  71:main.c        **** 	int n;
  72:main.c        **** 	for(n = 0; n < len; n++) {
 187              		.loc 1 72 0
 188 0006 0025     		movs	r5, #0
 189 0008 0BE0     		b	.L14
 190              	.LVL21:
 191              	.L16:
  73:main.c        ****         if(*ptr == '\n') UART_1_PutChar('\r');
 192              		.loc 1 73 0
 193 000a 2378     		ldrb	r3, [r4]	@ zero_extendqisi2
 194 000c 0A2B     		cmp	r3, #10
 195 000e 02D1     		bne	.L15
 196              		.loc 1 73 0 is_stmt 0 discriminator 1
 197 0010 0D20     		movs	r0, #13
 198 0012 FFF7FEFF 		bl	UART_1_PutChar
 199              	.LVL22:
 200              	.L15:
  74:main.c        **** 		UART_1_PutChar(*ptr++);
 201              		.loc 1 74 0 is_stmt 1 discriminator 2
 202 0016 661C     		adds	r6, r4, #1
ARM GAS  C:\Users\vellu\AppData\Local\Temp\ccwq67Db.s 			page 6


 203              	.LVL23:
 204 0018 2078     		ldrb	r0, [r4]	@ zero_extendqisi2
 205 001a FFF7FEFF 		bl	UART_1_PutChar
 206              	.LVL24:
  72:main.c        ****         if(*ptr == '\n') UART_1_PutChar('\r');
 207              		.loc 1 72 0 discriminator 2
 208 001e 0135     		adds	r5, r5, #1
 209              	.LVL25:
 210              		.loc 1 74 0 discriminator 2
 211 0020 3446     		mov	r4, r6
 212              	.LVL26:
 213              	.L14:
  72:main.c        ****         if(*ptr == '\n') UART_1_PutChar('\r');
 214              		.loc 1 72 0 discriminator 1
 215 0022 BD42     		cmp	r5, r7
 216 0024 F1DB     		blt	.L16
  75:main.c        **** 	}
  76:main.c        **** 	return len;
  77:main.c        **** }
 217              		.loc 1 77 0
 218 0026 3846     		mov	r0, r7
 219 0028 F8BD     		pop	{r3, r4, r5, r6, r7, pc}
 220              		.cfi_endproc
 221              	.LFE65:
 222              		.size	_write, .-_write
 223 002a 00BF     		.section	.text._read,"ax",%progbits
 224              		.align	2
 225              		.global	_read
 226              		.thumb
 227              		.thumb_func
 228              		.type	_read, %function
 229              	_read:
 230              	.LFB66:
  78:main.c        **** 
  79:main.c        **** int _read (int file, char *ptr, int count)
  80:main.c        **** {
 231              		.loc 1 80 0
 232              		.cfi_startproc
 233              		@ args = 0, pretend = 0, frame = 0
 234              		@ frame_needed = 0, uses_anonymous_args = 0
 235              	.LVL27:
 236 0000 F8B5     		push	{r3, r4, r5, r6, r7, lr}
 237              		.cfi_def_cfa_offset 24
 238              		.cfi_offset 3, -24
 239              		.cfi_offset 4, -20
 240              		.cfi_offset 5, -16
 241              		.cfi_offset 6, -12
 242              		.cfi_offset 7, -8
 243              		.cfi_offset 14, -4
 244 0002 0F46     		mov	r7, r1
 245 0004 1446     		mov	r4, r2
 246              	.LVL28:
  81:main.c        ****     int chs = 0;
 247              		.loc 1 81 0
 248 0006 0026     		movs	r6, #0
  82:main.c        ****     char ch;
  83:main.c        ****  
ARM GAS  C:\Users\vellu\AppData\Local\Temp\ccwq67Db.s 			page 7


  84:main.c        ****     (void)file; /* Parameter is not used, suppress unused argument warning */
  85:main.c        ****     while(count > 0) {
 249              		.loc 1 85 0
 250 0008 12E0     		b	.L20
 251              	.LVL29:
 252              	.L23:
  86:main.c        ****         ch = UART_1_GetChar();
 253              		.loc 1 86 0
 254 000a FFF7FEFF 		bl	UART_1_GetChar
 255              	.LVL30:
  87:main.c        ****         if(ch != 0) {
 256              		.loc 1 87 0
 257 000e 0546     		mov	r5, r0
 258 0010 70B1     		cbz	r0, .L20
  88:main.c        ****             UART_1_PutChar(ch);
 259              		.loc 1 88 0
 260 0012 FFF7FEFF 		bl	UART_1_PutChar
 261              	.LVL31:
  89:main.c        ****             chs++;
 262              		.loc 1 89 0
 263 0016 0136     		adds	r6, r6, #1
 264              	.LVL32:
  90:main.c        ****             if(ch == '\r') {
 265              		.loc 1 90 0
 266 0018 0D2D     		cmp	r5, #13
 267 001a 03D1     		bne	.L21
 268              	.LVL33:
  91:main.c        ****                 ch = '\n';
  92:main.c        ****                 UART_1_PutChar(ch);
 269              		.loc 1 92 0
 270 001c 0A20     		movs	r0, #10
 271 001e FFF7FEFF 		bl	UART_1_PutChar
 272              	.LVL34:
  91:main.c        ****                 ch = '\n';
 273              		.loc 1 91 0
 274 0022 0A25     		movs	r5, #10
 275              	.LVL35:
 276              	.L21:
  93:main.c        ****             }
  94:main.c        ****             *ptr++ = ch;
 277              		.loc 1 94 0
 278 0024 7B1C     		adds	r3, r7, #1
 279              	.LVL36:
 280 0026 3D70     		strb	r5, [r7]
  95:main.c        ****             count--;
 281              		.loc 1 95 0
 282 0028 013C     		subs	r4, r4, #1
 283              	.LVL37:
  96:main.c        ****             if(ch == '\n') break;
 284              		.loc 1 96 0
 285 002a 0A2D     		cmp	r5, #10
 286 002c 02D0     		beq	.L22
  94:main.c        ****             count--;
 287              		.loc 1 94 0
 288 002e 1F46     		mov	r7, r3
 289              	.LVL38:
 290              	.L20:
ARM GAS  C:\Users\vellu\AppData\Local\Temp\ccwq67Db.s 			page 8


  85:main.c        ****         ch = UART_1_GetChar();
 291              		.loc 1 85 0
 292 0030 002C     		cmp	r4, #0
 293 0032 EADC     		bgt	.L23
 294              	.LVL39:
 295              	.L22:
  97:main.c        ****         }
  98:main.c        ****     }
  99:main.c        ****     return chs;
 100:main.c        **** }
 296              		.loc 1 100 0
 297 0034 3046     		mov	r0, r6
 298 0036 F8BD     		pop	{r3, r4, r5, r6, r7, pc}
 299              		.cfi_endproc
 300              	.LFE66:
 301              		.size	_read, .-_read
 302              		.section	.rodata.str1.4,"aMS",%progbits,1
 303              		.align	2
 304              	.LC0:
 305 0000 456E7465 		.ascii	"Enter a number [%d-%d]: \012\000"
 305      72206120 
 305      6E756D62 
 305      6572205B 
 305      25642D25 
 306 001a 0000     		.space	2
 307              	.LC1:
 308 001c 256400   		.ascii	"%d\000"
 309 001f 00       		.space	1
 310              	.LC2:
 311 0020 496E7661 		.ascii	"Invalid value! number must be between %d and %d.\012"
 311      6C696420 
 311      76616C75 
 311      6521206E 
 311      756D6265 
 312 0051 00       		.ascii	"\000"
 313 0052 0000     		.space	2
 314              	.LC3:
 315 0054 2564206D 		.ascii	"%d multiplied by %d is: \012\000"
 315      756C7469 
 315      706C6965 
 315      64206279 
 315      20256420 
 316 006e 0000     		.space	2
 317              	.LC4:
 318 0070 25640A00 		.ascii	"%d\012\000"
 319              		.text
 320              	.Letext0:
 321              		.file 2 "c:\\program files (x86)\\cypress\\psoc creator\\4.0\\psoc creator\\import\\gnu\\arm\\4.9.
 322              		.file 3 "c:\\program files (x86)\\cypress\\psoc creator\\4.0\\psoc creator\\import\\gnu\\arm\\4.9.
 323              		.file 4 "Generated_Source\\PSoC5/cytypes.h"
 324              		.file 5 "c:\\program files (x86)\\cypress\\psoc creator\\4.0\\psoc creator\\import\\gnu\\arm\\4.9.
 325              		.file 6 "Generated_Source\\PSoC5/core_cm3.h"
 326              		.file 7 "Generated_Source\\PSoC5/UART_1.h"